Archive member included to satisfy reference by file (symbol)

NuttX/nuttx/arch/arm/src/libarch.a(stm32_start.o)
                              (__start)
NuttX/nuttx/arch/arm/src/libarch.a(stm32_rcc.o)
                              NuttX/nuttx/arch/arm/src/libarch.a(stm32_start.o) (stm32_clockconfig)
NuttX/nuttx/arch/arm/src/libarch.a(stm32_gpio.o)
                              NuttX/nuttx/arch/arm/src/libarch.a(stm32_start.o) (stm32_gpioinit)
NuttX/nuttx/arch/arm/src/libarch.a(stm32_lowputc.o)
                              NuttX/nuttx/arch/arm/src/libarch.a(stm32_start.o) (stm32_lowsetup)
NuttX/nuttx/arch/arm/src/libarch.a(stm32_serial.o)
                              NuttX/nuttx/arch/arm/src/libarch.a(stm32_start.o) (up_earlyserialinit)
NuttX/nuttx/arch/arm/src/libarch.a(up_modifyreg32.o)
                              NuttX/nuttx/arch/arm/src/libarch.a(stm32_serial.o) (modifyreg32)
NuttX/nuttx/arch/arm/src/libarch.a(up_vectors.o)
                              (_vectors)
NuttX/nuttx/arch/arm/src/libarch.a(up_exception.o)
                              NuttX/nuttx/arch/arm/src/libarch.a(up_vectors.o) (exception_common)
NuttX/nuttx/arch/arm/src/libarch.a(stm32_irq.o)
                              NuttX/nuttx/arch/arm/src/libarch.a(stm32_serial.o) (up_disable_irq)
NuttX/nuttx/arch/arm/src/libarch.a(stm32_dma.o)
                              NuttX/nuttx/arch/arm/src/libarch.a(stm32_serial.o) (stm32_dmachannel)
NuttX/nuttx/arch/arm/src/libarch.a(up_assert.o)
                              NuttX/nuttx/arch/arm/src/libarch.a(stm32_dma.o) (up_assert)
NuttX/nuttx/arch/arm/src/libarch.a(up_doirq.o)
                              NuttX/nuttx/arch/arm/src/libarch.a(up_exception.o) (up_doirq)
NuttX/nuttx/arch/arm/src/libarch.a(up_hardfault.o)
                              NuttX/nuttx/arch/arm/src/libarch.a(stm32_irq.o) (up_hardfault)
NuttX/nuttx/arch/arm/src/libarch.a(up_svcall.o)
                              NuttX/nuttx/arch/arm/src/libarch.a(stm32_irq.o) (up_svcall)
NuttX/nuttx/arch/arm/src/libarch.a(up_checkstack.o)
                              NuttX/nuttx/arch/arm/src/libarch.a(up_assert.o) (up_check_tcbstack)
NuttX/nuttx/arch/arm/src/libarch.a(stm32_vectors.o)
                              NuttX/nuttx/arch/arm/src/libarch.a(up_assert.o) (g_idle_topstack)
NuttX/nuttx/libc/libc.a(arch_memcpy.o)
                              NuttX/nuttx/arch/arm/src/libarch.a(up_svcall.o) (memcpy)
NuttX/nuttx/libc/libc.a(sem_init.o)
                              NuttX/nuttx/arch/arm/src/libarch.a(stm32_dma.o) (sem_init)
NuttX/nuttx/libc/libc.a(lib_abort.o)
                              (abort)
NuttX/nuttx/libc/libc.a(lib_strcpy.o)
                              NuttX/nuttx/arch/arm/src/libarch.a(stm32_serial.o) (strcpy)
NuttX/nuttx/libc/libc.a(lib_syslog.o)
                              NuttX/nuttx/arch/arm/src/libarch.a(up_assert.o) (syslog)
NuttX/nuttx/libc/libc.a(lib_setlogmask.o)
                              NuttX/nuttx/libc/libc.a(lib_syslog.o) (g_syslog_mask)
NuttX/nuttx/libc/libc.a(lib_cfgetspeed.o)
                              NuttX/nuttx/arch/arm/src/libarch.a(stm32_serial.o) (cfgetspeed)
NuttX/nuttx/libc/libc.a(lib_cfsetspeed.o)
                              NuttX/nuttx/arch/arm/src/libarch.a(stm32_serial.o) (cfsetspeed)
NuttX/nuttx/drivers/libdrivers.a(serial.o)
                              NuttX/nuttx/arch/arm/src/libarch.a(stm32_serial.o) (uart_register)
NuttX/nuttx/drivers/libdrivers.a(serial_io.o)
                              NuttX/nuttx/arch/arm/src/libarch.a(stm32_serial.o) (uart_xmitchars)
NuttX/nuttx/drivers/libdrivers.a(vsyslog.o)
                              NuttX/nuttx/libc/libc.a(lib_syslog.o) (_vsyslog)
NuttX/nuttx/drivers/libdrivers.a(syslog_stream.o)
                              NuttX/nuttx/drivers/libdrivers.a(vsyslog.o) (syslogstream_create)
NuttX/nuttx/drivers/libdrivers.a(syslog_emergstream.o)
                              NuttX/nuttx/drivers/libdrivers.a(vsyslog.o) (emergstream)
NuttX/nuttx/drivers/libdrivers.a(syslog_putc.o)
                              NuttX/nuttx/drivers/libdrivers.a(syslog_stream.o) (syslog_putc)
NuttX/nuttx/drivers/libdrivers.a(syslog_force.o)
                              NuttX/nuttx/drivers/libdrivers.a(syslog_emergstream.o) (syslog_force)
NuttX/nuttx/drivers/libdrivers.a(syslog_channel.o)
                              NuttX/nuttx/drivers/libdrivers.a(syslog_putc.o) (g_syslog_channel)
NuttX/nuttx/fs/libfs.a(fs_registerdriver.o)
                              NuttX/nuttx/drivers/libdrivers.a(serial.o) (register_driver)
NuttX/nuttx/fs/libfs.a(fs_inode.o)
                              NuttX/nuttx/fs/libfs.a(fs_registerdriver.o) (inode_semtake)
NuttX/nuttx/fs/libfs.a(fs_inodereserve.o)
                              NuttX/nuttx/fs/libfs.a(fs_registerdriver.o) (inode_reserve)
NuttX/nuttx/fs/libfs.a(fs_inodesearch.o)
                              NuttX/nuttx/fs/libfs.a(fs_inodereserve.o) (inode_nextname)
NuttX/nuttx/mm/libmm.a(umm_zalloc.o)
                              NuttX/nuttx/fs/libfs.a(fs_inodereserve.o) (zalloc)
NuttX/nuttx/mm/libmm.a(umm_globals.o)
                              NuttX/nuttx/mm/libmm.a(umm_zalloc.o) (g_mmheap)
NuttX/nuttx/mm/libmm.a(mm_zalloc.o)
                              NuttX/nuttx/mm/libmm.a(umm_zalloc.o) (mm_zalloc)
NuttX/nuttx/mm/libmm.a(mm_malloc.o)
                              NuttX/nuttx/mm/libmm.a(mm_zalloc.o) (mm_malloc)
NuttX/nuttx/mm/libmm.a(mm_sem.o)
                              NuttX/nuttx/mm/libmm.a(mm_malloc.o) (mm_takesemaphore)
NuttX/nuttx/mm/libmm.a(mm_addfreechunk.o)
                              NuttX/nuttx/mm/libmm.a(mm_malloc.o) (mm_addfreechunk)
NuttX/nuttx/mm/libmm.a(mm_size2ndx.o)
                              NuttX/nuttx/mm/libmm.a(mm_malloc.o) (mm_size2ndx)
NuttX/nuttx/sched/libsched.a(errno_getptr.o)
                              NuttX/nuttx/arch/arm/src/libarch.a(stm32_dma.o) (get_errno_ptr)
NuttX/nuttx/sched/libsched.a(os_start.o)
                              NuttX/nuttx/arch/arm/src/libarch.a(stm32_start.o) (os_start)
NuttX/nuttx/sched/libsched.a(os_bringup.o)
                              NuttX/nuttx/sched/libsched.a(os_start.o) (os_bringup)
NuttX/nuttx/sched/libsched.a(irq_attach.o)
                              NuttX/nuttx/arch/arm/src/libarch.a(stm32_serial.o) (irq_attach)
NuttX/nuttx/sched/libsched.a(irq_dispatch.o)
                              NuttX/nuttx/arch/arm/src/libarch.a(up_doirq.o) (irq_dispatch)
NuttX/nuttx/sched/libsched.a(irq_unexpectedisr.o)
                              NuttX/nuttx/sched/libsched.a(irq_attach.o) (irq_unexpected_isr)
NuttX/nuttx/sched/libsched.a(sched_garbage.o)
                              NuttX/nuttx/sched/libsched.a(os_start.o) (sched_garbage_collection)
NuttX/nuttx/sched/libsched.a(sched_foreach.o)
                              NuttX/nuttx/arch/arm/src/libarch.a(up_assert.o) (sched_foreach)
NuttX/nuttx/sched/libsched.a(sched_idletask.o)
                              NuttX/nuttx/drivers/libdrivers.a(serial.o) (sched_idletask)
NuttX/nuttx/sched/libsched.a(sem_wait.o)
                              NuttX/nuttx/arch/arm/src/libarch.a(stm32_dma.o) (sem_wait)
NuttX/nuttx/sched/libsched.a(sem_trywait.o)
                              NuttX/nuttx/mm/libmm.a(mm_sem.o) (sem_trywait)
NuttX/nuttx/sched/libsched.a(sem_post.o)
                              NuttX/nuttx/arch/arm/src/libarch.a(stm32_dma.o) (sem_post)
NuttX/nuttx/sched/libsched.a(sem_reset.o)
                              NuttX/nuttx/drivers/libdrivers.a(serial.o) (sem_reset)
NuttX/nuttx/sched/libsched.a(task_create.o)
                              NuttX/nuttx/sched/libsched.a(os_bringup.o) (task_create)
NuttX/nuttx/sched/libsched.a(task_setup.o)
                              NuttX/nuttx/sched/libsched.a(task_create.o) (task_schedsetup)
NuttX/nuttx/sched/libsched.a(task_activate.o)
                              NuttX/nuttx/sched/libsched.a(task_create.o) (task_activate)
NuttX/nuttx/sched/libsched.a(task_start.o)
                              NuttX/nuttx/sched/libsched.a(task_create.o) (task_start)
NuttX/nuttx/sched/libsched.a(task_getpid.o)
                              NuttX/nuttx/fs/libfs.a(fs_inode.o) (getpid)
NuttX/nuttx/sched/libsched.a(exit.o)
                              NuttX/nuttx/arch/arm/src/libarch.a(up_assert.o) (exit)
NuttX/nuttx/sched/libsched.a(group_create.o)
                              NuttX/nuttx/sched/libsched.a(os_start.o) (group_allocate)
NuttX/nuttx/sched/libsched.a(group_setupidlefiles.o)
                              NuttX/nuttx/sched/libsched.a(os_start.o) (group_setupidlefiles)
NuttX/nuttx/sched/libsched.a(group_setuptaskfiles.o)
                              NuttX/nuttx/sched/libsched.a(task_create.o) (group_setuptaskfiles)
NuttX/nuttx/sched/libsched.a(irq_initialize.o)
                              NuttX/nuttx/sched/libsched.a(irq_attach.o) (g_irqvector)
NuttX/nuttx/sched/libsched.a(sched_releasetcb.o)
                              NuttX/nuttx/sched/libsched.a(task_create.o) (sched_releasetcb)
NuttX/nuttx/sched/libsched.a(sched_lock.o)
                              NuttX/nuttx/sched/libsched.a(sem_reset.o) (sched_lock)
NuttX/nuttx/sched/libsched.a(sched_unlock.o)
                              NuttX/nuttx/sched/libsched.a(sem_reset.o) (sched_unlock)
NuttX/nuttx/sched/libsched.a(task_exithook.o)
                              NuttX/nuttx/sched/libsched.a(exit.o) (task_exithook)
NuttX/nuttx/sched/libsched.a(task_recover.o)
                              NuttX/nuttx/sched/libsched.a(task_exithook.o) (task_recover)
NuttX/nuttx/sched/libsched.a(wd_recover.o)
                              NuttX/nuttx/sched/libsched.a(task_recover.o) (wd_recover)
NuttX/nuttx/sched/libsched.a(group_leave.o)
                              NuttX/nuttx/sched/libsched.a(sched_releasetcb.o) (group_leave)
NuttX/nuttx/sched/libsched.a(sched_free.o)
                              NuttX/nuttx/sched/libsched.a(sched_releasetcb.o) (sched_ufree)
NuttX/nuttx/sched/libsched.a(sem_recover.o)
                              NuttX/nuttx/sched/libsched.a(task_recover.o) (sem_recover)
NuttX/nuttx/sched/libsched.a(wd_cancel.o)
                              NuttX/nuttx/sched/libsched.a(wd_recover.o) (wd_cancel)
NuttX/nuttx/sched/libsched.a(wd_delete.o)
                              NuttX/nuttx/sched/libsched.a(wd_recover.o) (wd_delete)
NuttX/nuttx/sched/libsched.a(wd_initialize.o)
                              NuttX/nuttx/sched/libsched.a(wd_delete.o) (g_wdnfree)
NuttX/nuttx/arch/arm/src/libarch.a(stm32_allocateheap.o)
                              NuttX/nuttx/sched/libsched.a(os_start.o) (up_allocate_heap)
NuttX/nuttx/arch/arm/src/libarch.a(stm32_idle.o)
                              NuttX/nuttx/sched/libsched.a(os_start.o) (up_idle)
NuttX/nuttx/arch/arm/src/libarch.a(up_blocktask.o)
                              NuttX/nuttx/sched/libsched.a(sem_wait.o) (up_block_task)
NuttX/nuttx/arch/arm/src/libarch.a(up_copyfullstate.o)
                              NuttX/nuttx/arch/arm/src/libarch.a(up_blocktask.o) (up_copyfullstate)
NuttX/nuttx/arch/arm/src/libarch.a(up_createstack.o)
                              NuttX/nuttx/sched/libsched.a(task_create.o) (up_create_stack)
NuttX/nuttx/arch/arm/src/libarch.a(up_mdelay.o)
                              NuttX/nuttx/drivers/libdrivers.a(serial.o) (up_mdelay)
NuttX/nuttx/arch/arm/src/libarch.a(up_exit.o)
                              NuttX/nuttx/sched/libsched.a(exit.o) (_exit)
NuttX/nuttx/arch/arm/src/libarch.a(up_initialize.o)
                              NuttX/nuttx/sched/libsched.a(os_start.o) (up_initialize)
NuttX/nuttx/arch/arm/src/libarch.a(up_initialstate.o)
                              NuttX/nuttx/sched/libsched.a(os_start.o) (up_initial_state)
NuttX/nuttx/arch/arm/src/libarch.a(up_interruptcontext.o)
                              NuttX/nuttx/drivers/libdrivers.a(serial.o) (up_interrupt_context)
NuttX/nuttx/arch/arm/src/libarch.a(up_releasepending.o)
                              NuttX/nuttx/sched/libsched.a(sched_unlock.o) (up_release_pending)
NuttX/nuttx/arch/arm/src/libarch.a(up_releasestack.o)
                              NuttX/nuttx/sched/libsched.a(sched_releasetcb.o) (up_release_stack)
NuttX/nuttx/arch/arm/src/libarch.a(up_stackframe.o)
                              NuttX/nuttx/sched/libsched.a(task_setup.o) (up_stack_frame)
NuttX/nuttx/arch/arm/src/libarch.a(up_unblocktask.o)
                              NuttX/nuttx/sched/libsched.a(sem_post.o) (up_unblock_task)
NuttX/nuttx/arch/arm/src/libarch.a(up_fullcontextrestore.o)
                              NuttX/nuttx/arch/arm/src/libarch.a(up_exit.o) (up_fullcontextrestore)
NuttX/nuttx/arch/arm/src/libarch.a(up_switchcontext.o)
                              NuttX/nuttx/arch/arm/src/libarch.a(up_blocktask.o) (up_switchcontext)
NuttX/nuttx/arch/arm/src/libarch.a(stm32_timerisr.o)
                              NuttX/nuttx/arch/arm/src/libarch.a(up_initialize.o) (arm_timer_initialize)
NuttX/nuttx/libc/libc.a(sq_addlast.o)
                              NuttX/nuttx/sched/libsched.a(sched_free.o) (sq_addlast)
NuttX/nuttx/libc/libc.a(sq_remfirst.o)
                              NuttX/nuttx/sched/libsched.a(sched_garbage.o) (sq_remfirst)
NuttX/nuttx/libc/libc.a(sq_remafter.o)
                              NuttX/nuttx/sched/libsched.a(wd_cancel.o) (sq_remafter)
NuttX/nuttx/libc/libc.a(dq_addfirst.o)
                              NuttX/nuttx/sched/libsched.a(os_start.o) (dq_addfirst)
NuttX/nuttx/libc/libc.a(dq_rem.o)
                              NuttX/nuttx/sched/libsched.a(task_create.o) (dq_rem)
NuttX/nuttx/libc/libc.a(sem_setprotocol.o)
                              NuttX/nuttx/drivers/libdrivers.a(serial.o) (sem_setprotocol)
NuttX/nuttx/libc/libc.a(lib_libvsprintf.o)
                              NuttX/nuttx/drivers/libdrivers.a(vsyslog.o) (lib_vsprintf)
NuttX/nuttx/libc/libc.a(lib_nulloutstream.o)
                              NuttX/nuttx/libc/libc.a(lib_libvsprintf.o) (lib_nulloutstream)
NuttX/nuttx/libc/libc.a(lib_libnoflush.o)
                              NuttX/nuttx/drivers/libdrivers.a(syslog_stream.o) (lib_noflush)
NuttX/nuttx/libc/libc.a(lib_memset.o)
                              NuttX/nuttx/mm/libmm.a(mm_zalloc.o) (memset)
NuttX/nuttx/libc/libc.a(lib_strchr.o)
                              NuttX/nuttx/libc/libc.a(lib_libvsprintf.o) (strchr)
NuttX/nuttx/libc/libc.a(lib_strlen.o)
                              NuttX/nuttx/sched/libsched.a(task_setup.o) (strlen)
NuttX/nuttx/libc/libc.a(lib_strnlen.o)
                              NuttX/nuttx/libc/libc.a(lib_libvsprintf.o) (strnlen)
NuttX/nuttx/libc/libc.a(lib_strncpy.o)
                              NuttX/nuttx/sched/libsched.a(task_setup.o) (strncpy)
NuttX/nuttx/drivers/libdrivers.a(syslog_initialize.o)
                              NuttX/nuttx/sched/libsched.a(os_start.o) (syslog_initialize)
NuttX/nuttx/drivers/libdrivers.a(syslog_consolechannel.o)
                              NuttX/nuttx/drivers/libdrivers.a(syslog_initialize.o) (syslog_console_channel)
NuttX/nuttx/drivers/libdrivers.a(syslog_device.o)
                              NuttX/nuttx/drivers/libdrivers.a(syslog_consolechannel.o) (syslog_dev_initialize)
NuttX/nuttx/fs/libfs.a(fs_initialize.o)
                              NuttX/nuttx/sched/libsched.a(os_start.o) (fs_initialize)
NuttX/nuttx/fs/libfs.a(fs_files.o)
                              NuttX/nuttx/sched/libsched.a(group_setupidlefiles.o) (files_initlist)
NuttX/nuttx/fs/libfs.a(fs_inodeaddref.o)
                              NuttX/nuttx/fs/libfs.a(fs_files.o) (inode_addref)
NuttX/nuttx/fs/libfs.a(fs_inoderelease.o)
                              NuttX/nuttx/fs/libfs.a(fs_files.o) (inode_release)
NuttX/nuttx/fs/libfs.a(fs_filedetach.o)
                              NuttX/nuttx/drivers/libdrivers.a(syslog_device.o) (file_detach)
NuttX/nuttx/fs/libfs.a(fs_close.o)
                              NuttX/nuttx/sched/libsched.a(group_setupidlefiles.o) (close)
NuttX/nuttx/fs/libfs.a(fs_dupfd2.o)
                              NuttX/nuttx/sched/libsched.a(group_setupidlefiles.o) (dup2)
NuttX/nuttx/fs/libfs.a(fs_getfilep.o)
                              NuttX/nuttx/fs/libfs.a(fs_dupfd2.o) (fs_getfilep)
NuttX/nuttx/fs/libfs.a(fs_open.o)
                              NuttX/nuttx/sched/libsched.a(group_setupidlefiles.o) (open)
NuttX/nuttx/fs/libfs.a(fs_write.o)
                              NuttX/nuttx/drivers/libdrivers.a(syslog_device.o) (file_write)
NuttX/nuttx/fs/libfs.a(fs_inodefind.o)
                              NuttX/nuttx/fs/libfs.a(fs_open.o) (inode_find)
NuttX/nuttx/fs/libfs.a(fs_inodefree.o)
                              NuttX/nuttx/fs/libfs.a(fs_inoderelease.o) (inode_free)
NuttX/nuttx/mm/libmm.a(umm_initialize.o)
                              NuttX/nuttx/sched/libsched.a(os_start.o) (umm_initialize)
NuttX/nuttx/mm/libmm.a(umm_sem.o)
                              NuttX/nuttx/sched/libsched.a(os_start.o) (umm_trysemaphore)
NuttX/nuttx/mm/libmm.a(umm_free.o)
                              NuttX/nuttx/sched/libsched.a(sched_garbage.o) (free)
NuttX/nuttx/mm/libmm.a(umm_malloc.o)
                              NuttX/nuttx/arch/arm/src/libarch.a(up_createstack.o) (malloc)
NuttX/nuttx/mm/libmm.a(mm_initialize.o)
                              NuttX/nuttx/mm/libmm.a(umm_initialize.o) (mm_initialize)
NuttX/nuttx/mm/libmm.a(mm_free.o)
                              NuttX/nuttx/mm/libmm.a(umm_free.o) (mm_free)
NuttX/nuttx/sched/libsched.a(sched_getfiles.o)
                              NuttX/nuttx/fs/libfs.a(fs_files.o) (sched_getfiles)
NuttX/nuttx/sched/libsched.a(sched_addreadytorun.o)
                              NuttX/nuttx/arch/arm/src/libarch.a(up_unblocktask.o) (sched_addreadytorun)
NuttX/nuttx/sched/libsched.a(sched_removereadytorun.o)
                              NuttX/nuttx/arch/arm/src/libarch.a(up_blocktask.o) (sched_removereadytorun)
NuttX/nuttx/sched/libsched.a(sched_addprioritized.o)
                              NuttX/nuttx/sched/libsched.a(sched_addreadytorun.o) (sched_addprioritized)
NuttX/nuttx/sched/libsched.a(sched_mergepending.o)
                              NuttX/nuttx/arch/arm/src/libarch.a(up_blocktask.o) (sched_mergepending)
NuttX/nuttx/sched/libsched.a(sched_addblocked.o)
                              NuttX/nuttx/arch/arm/src/libarch.a(up_blocktask.o) (sched_addblocked)
NuttX/nuttx/sched/libsched.a(sched_removeblocked.o)
                              NuttX/nuttx/arch/arm/src/libarch.a(up_unblocktask.o) (sched_removeblocked)
NuttX/nuttx/sched/libsched.a(sched_processtimer.o)
                              NuttX/nuttx/arch/arm/src/libarch.a(stm32_timerisr.o) (sched_process_timer)
NuttX/nuttx/sched/libsched.a(sem_destroy.o)
                              NuttX/nuttx/fs/libfs.a(fs_files.o) (sem_destroy)
NuttX/nuttx/sched/libsched.a(task_exit.o)
                              NuttX/nuttx/arch/arm/src/libarch.a(up_exit.o) (task_exit)
NuttX/nuttx/sched/libsched.a(task_terminate.o)
                              NuttX/nuttx/sched/libsched.a(task_exit.o) (task_terminate)
NuttX/nuttx/sched/libsched.a(wd_start.o)
                              NuttX/nuttx/sched/libsched.a(sched_processtimer.o) (wd_timer)
NuttX/nuttx/sched/libsched.a(sched_gettcb.o)
                              NuttX/nuttx/sched/libsched.a(task_terminate.o) (sched_gettcb)
NuttX/nuttx/libc/libc.a(sq_addfirst.o)
                              NuttX/nuttx/sched/libsched.a(wd_start.o) (sq_addfirst)
NuttX/nuttx/libc/libc.a(sq_addafter.o)
                              NuttX/nuttx/sched/libsched.a(wd_start.o) (sq_addafter)
NuttX/nuttx/libc/libc.a(dq_addlast.o)
                              NuttX/nuttx/sched/libsched.a(sched_addblocked.o) (dq_addlast)
NuttX/nuttx/libc/libc.a(lib_strdup.o)
                              NuttX/nuttx/drivers/libdrivers.a(syslog_device.o) (strdup)
src/modules/px4iofirmware/libpx4iofirmware.a(px4io.c.obj)
                              NuttX/nuttx/sched/libsched.a(os_bringup.o) (user_start)
src/modules/px4iofirmware/libpx4iofirmware.a(registers.c.obj)
                              src/modules/px4iofirmware/libpx4iofirmware.a(px4io.c.obj) (r_page_setup)
src/modules/px4iofirmware/libpx4iofirmware.a(safety.c.obj)
                              src/modules/px4iofirmware/libpx4iofirmware.a(px4io.c.obj) (safety_init)
src/modules/px4iofirmware/libpx4iofirmware.a(serial.c.obj)
                              src/modules/px4iofirmware/libpx4iofirmware.a(px4io.c.obj) (interface_init)
src/modules/px4iofirmware/libpx4iofirmware.a(pwm_limit.c.obj)
                              src/modules/px4iofirmware/libpx4iofirmware.a(px4io.c.obj) (pwm_limit_init)
src/modules/px4iofirmware/libpx4iofirmware.a(adc.c.obj)
                              src/modules/px4iofirmware/libpx4iofirmware.a(px4io.c.obj) (adc_init)
src/modules/px4iofirmware/libpx4iofirmware.a(controls.c.obj)
                              src/modules/px4iofirmware/libpx4iofirmware.a(px4io.c.obj) (controls_init)
src/modules/px4iofirmware/libpx4iofirmware.a(mixer.cpp.obj)
                              src/modules/px4iofirmware/libpx4iofirmware.a(registers.c.obj) (mixer_handle_text)
NuttX/apps/libapps.a(gnu_cxxinitialize.o)
                              src/modules/px4iofirmware/libpx4iofirmware.a(px4io.c.obj) (up_cxxinitialize)
NuttX/nuttx/arch/arm/src/libarch.a(up_udelay.o)
                              src/modules/px4iofirmware/libpx4iofirmware.a(px4io.c.obj) (up_udelay)
NuttX/nuttx/arch/arm/src/libarch.a(up_systemreset.o)
                              src/modules/px4iofirmware/libpx4iofirmware.a(px4io.c.obj) (up_systemreset)
src/drivers/boards/px4io-v2/libdrivers_board.a(init.c.obj)
                              NuttX/nuttx/arch/arm/src/libarch.a(stm32_start.o) (stm32_boardinitialize)
src/drivers/stm32/libdrivers_arch.a(drv_hrt.c.obj)
                              src/modules/px4iofirmware/libpx4iofirmware.a(px4io.c.obj) (hrt_absolute_time)
src/drivers/stm32/libdrivers_arch.a(drv_pwm_servo.c.obj)
                              src/modules/px4iofirmware/libpx4iofirmware.a(mixer.cpp.obj) (up_pwm_servo_set)
src/drivers/stm32/libdrivers_arch.a(drv_io_timer.c.obj)
                              src/drivers/stm32/libdrivers_arch.a(drv_pwm_servo.c.obj) (io_timer_is_channel_free)
src/drivers/boards/px4io-v2/libdrivers_board.a(timer_config.c.obj)
                              src/drivers/stm32/libdrivers_arch.a(drv_io_timer.c.obj) (timer_io_channels)
src/lib/mixer/libmixer.a(mixer_group.cpp.obj)
                              src/modules/px4iofirmware/libpx4iofirmware.a(mixer.cpp.obj) (MixerGroup::mix(float*, unsigned int))
src/lib/mixer/libmixer.a(mixer_helicopter.cpp.obj)
                              src/lib/mixer/libmixer.a(mixer_group.cpp.obj) (HelicopterMixer::from_text(int (*)(unsigned int, unsigned char, unsigned char, float&), unsigned int, char const*, unsigned int&))
src/lib/mixer/libmixer.a(mixer_multirotor.cpp.obj)
                              src/lib/mixer/libmixer.a(mixer_group.cpp.obj) (MultirotorMixer::from_text(int (*)(unsigned int, unsigned char, unsigned char, float&), unsigned int, char const*, unsigned int&))
src/lib/mixer/libmixer.a(mixer_simple.cpp.obj)
                              src/lib/mixer/libmixer.a(mixer_group.cpp.obj) (SimpleMixer::from_text(int (*)(unsigned int, unsigned char, unsigned char, float&), unsigned int, char const*, unsigned int&))
src/lib/mixer/libmixer.a(mixer.cpp.obj)
                              src/lib/mixer/libmixer.a(mixer_group.cpp.obj) (Mixer::Mixer(int (*)(unsigned int, unsigned char, unsigned char, float&), unsigned int))
src/lib/rc/librc.a(st24.cpp.obj)
                              src/modules/px4iofirmware/libpx4iofirmware.a(controls.c.obj) (st24_decode)
src/lib/rc/librc.a(sumd.cpp.obj)
                              src/modules/px4iofirmware/libpx4iofirmware.a(controls.c.obj) (sumd_decode)
src/lib/rc/librc.a(sbus.cpp.obj)
                              src/modules/px4iofirmware/libpx4iofirmware.a(controls.c.obj) (sbus_init)
src/lib/rc/librc.a(dsm.cpp.obj)
                              src/modules/px4iofirmware/libpx4iofirmware.a(controls.c.obj) (dsm_init)
src/lib/rc/librc.a(common_rc.cpp.obj)
                              src/lib/rc/librc.a(st24.cpp.obj) (rc_decode_buf)
NuttX/nuttx/libxx/libcxx.a(libxx_cxapurevirtual.o)
                              src/lib/mixer/libmixer.a(mixer.cpp.obj) (__cxa_pure_virtual)
NuttX/nuttx/libxx/libcxx.a(libxx_eabi_atexit.o)
                              src/modules/px4iofirmware/libpx4iofirmware.a(mixer.cpp.obj) (__aeabi_atexit)
NuttX/nuttx/libxx/libcxx.a(libxx_cxa_atexit.o)
                              NuttX/nuttx/libxx/libcxx.a(libxx_eabi_atexit.o) (__cxa_atexit)
NuttX/nuttx/libxx/libcxx.a(libxx_delete.o)
                              src/lib/mixer/libmixer.a(mixer_group.cpp.obj) (operator delete(void*))
NuttX/nuttx/libxx/libcxx.a(libxx_deletea.o)
                              src/lib/mixer/libmixer.a(mixer_multirotor.cpp.obj) (operator delete[](void*))
NuttX/nuttx/libxx/libcxx.a(libxx_new.o)
                              src/lib/mixer/libmixer.a(mixer_helicopter.cpp.obj) (operator new(unsigned int))
NuttX/nuttx/libxx/libcxx.a(libxx_newa.o)
                              src/lib/mixer/libmixer.a(mixer_multirotor.cpp.obj) (operator new[](unsigned int))
NuttX/nuttx/libc/libc.a(lib_crc32.o)
                              src/modules/px4iofirmware/libpx4iofirmware.a(px4io.c.obj) (crc32part)
NuttX/nuttx/libc/libc.a(sq_rem.o)
                              src/drivers/stm32/libdrivers_arch.a(drv_hrt.c.obj) (sq_rem)
NuttX/nuttx/libc/libc.a(lib_printf.o)
                              src/lib/rc/librc.a(sumd.cpp.obj) (printf)
NuttX/nuttx/libc/libc.a(lib_vsnprintf.o)
                              src/modules/px4iofirmware/libpx4iofirmware.a(px4io.c.obj) (vsnprintf)
NuttX/nuttx/libc/libc.a(lib_memoutstream.o)
                              NuttX/nuttx/libc/libc.a(lib_vsnprintf.o) (lib_memoutstream)
NuttX/nuttx/libc/libc.a(lib_sscanf.o)
                              src/lib/mixer/libmixer.a(mixer_helicopter.cpp.obj) (sscanf)
NuttX/nuttx/libc/libc.a(lib_strtol.o)
                              NuttX/nuttx/libc/libc.a(lib_sscanf.o) (strtol)
NuttX/nuttx/libc/libc.a(lib_strtoul.o)
                              NuttX/nuttx/libc/libc.a(lib_sscanf.o) (strtoul)
NuttX/nuttx/libc/libc.a(lib_checkbase.o)
                              NuttX/nuttx/libc/libc.a(lib_strtoul.o) (lib_checkbase)
NuttX/nuttx/libc/libc.a(lib_isbasedigit.o)
                              NuttX/nuttx/libc/libc.a(lib_strtoul.o) (lib_isbasedigit)
NuttX/nuttx/libc/libc.a(lib_memchr.o)
                              src/lib/mixer/libmixer.a(mixer.cpp.obj) (memchr)
NuttX/nuttx/libc/libc.a(lib_memmove.o)
                              src/modules/px4iofirmware/libpx4iofirmware.a(mixer.cpp.obj) (memmove)
NuttX/nuttx/libc/libc.a(lib_skipspace.o)
                              NuttX/nuttx/libc/libc.a(lib_strtol.o) (lib_skipspace)
NuttX/nuttx/libc/libc.a(lib_strcmp.o)
                              src/lib/mixer/libmixer.a(mixer_multirotor.cpp.obj) (strcmp)
NuttX/nuttx/libc/libc.a(lib_strcspn.o)
                              NuttX/nuttx/libc/libc.a(lib_sscanf.o) (strcspn)
NuttX/nuttx/libc/libc.a(lib_tcgetattr.o)
                              src/lib/rc/librc.a(sbus.cpp.obj) (tcgetattr)
NuttX/nuttx/libc/libc.a(lib_tcsetattr.o)
                              src/lib/rc/librc.a(sbus.cpp.obj) (tcsetattr)
NuttX/nuttx/fs/libfs.a(fs_ioctl.o)
                              src/lib/rc/librc.a(sbus.cpp.obj) (ioctl)
NuttX/nuttx/fs/libfs.a(fs_read.o)
                              src/lib/rc/librc.a(sbus.cpp.obj) (read)
NuttX/nuttx/mm/libmm.a(umm_mallinfo.o)
                              src/modules/px4iofirmware/libpx4iofirmware.a(px4io.c.obj) (mallinfo)
NuttX/nuttx/mm/libmm.a(mm_mallinfo.o)
                              NuttX/nuttx/mm/libmm.a(umm_mallinfo.o) (mm_mallinfo)
/home/zhouhua/gcc-arm-none-eabi-7-2017-q4-major/bin/../lib/gcc/arm-none-eabi/7.2.1/../../../../arm-none-eabi/lib/thumb/v7-m/libm.a(lib_a-sf_cos.o)
                              src/lib/mixer/libmixer.a(mixer_helicopter.cpp.obj) (cosf)
/home/zhouhua/gcc-arm-none-eabi-7-2017-q4-major/bin/../lib/gcc/arm-none-eabi/7.2.1/../../../../arm-none-eabi/lib/thumb/v7-m/libm.a(lib_a-sf_floor.o)
                              src/modules/px4iofirmware/libpx4iofirmware.a(mixer.cpp.obj) (floorf)
/home/zhouhua/gcc-arm-none-eabi-7-2017-q4-major/bin/../lib/gcc/arm-none-eabi/7.2.1/../../../../arm-none-eabi/lib/thumb/v7-m/libm.a(lib_a-sf_fmax.o)
                              src/lib/mixer/libmixer.a(mixer_multirotor.cpp.obj) (fmaxf)
/home/zhouhua/gcc-arm-none-eabi-7-2017-q4-major/bin/../lib/gcc/arm-none-eabi/7.2.1/../../../../arm-none-eabi/lib/thumb/v7-m/libm.a(lib_a-sf_fmin.o)
                              src/lib/mixer/libmixer.a(mixer_multirotor.cpp.obj) (fminf)
/home/zhouhua/gcc-arm-none-eabi-7-2017-q4-major/bin/../lib/gcc/arm-none-eabi/7.2.1/../../../../arm-none-eabi/lib/thumb/v7-m/libm.a(lib_a-sf_fpclassify.o)
                              src/modules/px4iofirmware/libpx4iofirmware.a(pwm_limit.c.obj) (__fpclassifyf)
/home/zhouhua/gcc-arm-none-eabi-7-2017-q4-major/bin/../lib/gcc/arm-none-eabi/7.2.1/../../../../arm-none-eabi/lib/thumb/v7-m/libm.a(lib_a-sf_sin.o)
                              src/lib/mixer/libmixer.a(mixer_helicopter.cpp.obj) (sinf)
/home/zhouhua/gcc-arm-none-eabi-7-2017-q4-major/bin/../lib/gcc/arm-none-eabi/7.2.1/../../../../arm-none-eabi/lib/thumb/v7-m/libm.a(lib_a-wf_sqrt.o)
                              src/lib/mixer/libmixer.a(mixer_multirotor.cpp.obj) (sqrtf)
/home/zhouhua/gcc-arm-none-eabi-7-2017-q4-major/bin/../lib/gcc/arm-none-eabi/7.2.1/../../../../arm-none-eabi/lib/thumb/v7-m/libm.a(lib_a-ef_rem_pio2.o)
                              /home/zhouhua/gcc-arm-none-eabi-7-2017-q4-major/bin/../lib/gcc/arm-none-eabi/7.2.1/../../../../arm-none-eabi/lib/thumb/v7-m/libm.a(lib_a-sf_cos.o) (__ieee754_rem_pio2f)
/home/zhouhua/gcc-arm-none-eabi-7-2017-q4-major/bin/../lib/gcc/arm-none-eabi/7.2.1/../../../../arm-none-eabi/lib/thumb/v7-m/libm.a(lib_a-ef_sqrt.o)
                              /home/zhouhua/gcc-arm-none-eabi-7-2017-q4-major/bin/../lib/gcc/arm-none-eabi/7.2.1/../../../../arm-none-eabi/lib/thumb/v7-m/libm.a(lib_a-wf_sqrt.o) (__ieee754_sqrtf)
/home/zhouhua/gcc-arm-none-eabi-7-2017-q4-major/bin/../lib/gcc/arm-none-eabi/7.2.1/../../../../arm-none-eabi/lib/thumb/v7-m/libm.a(lib_a-kf_cos.o)
                              /home/zhouhua/gcc-arm-none-eabi-7-2017-q4-major/bin/../lib/gcc/arm-none-eabi/7.2.1/../../../../arm-none-eabi/lib/thumb/v7-m/libm.a(lib_a-sf_cos.o) (__kernel_cosf)
/home/zhouhua/gcc-arm-none-eabi-7-2017-q4-major/bin/../lib/gcc/arm-none-eabi/7.2.1/../../../../arm-none-eabi/lib/thumb/v7-m/libm.a(lib_a-kf_rem_pio2.o)
                              /home/zhouhua/gcc-arm-none-eabi-7-2017-q4-major/bin/../lib/gcc/arm-none-eabi/7.2.1/../../../../arm-none-eabi/lib/thumb/v7-m/libm.a(lib_a-ef_rem_pio2.o) (__kernel_rem_pio2f)
/home/zhouhua/gcc-arm-none-eabi-7-2017-q4-major/bin/../lib/gcc/arm-none-eabi/7.2.1/../../../../arm-none-eabi/lib/thumb/v7-m/libm.a(lib_a-kf_sin.o)
                              /home/zhouhua/gcc-arm-none-eabi-7-2017-q4-major/bin/../lib/gcc/arm-none-eabi/7.2.1/../../../../arm-none-eabi/lib/thumb/v7-m/libm.a(lib_a-sf_cos.o) (__kernel_sinf)
/home/zhouhua/gcc-arm-none-eabi-7-2017-q4-major/bin/../lib/gcc/arm-none-eabi/7.2.1/../../../../arm-none-eabi/lib/thumb/v7-m/libm.a(lib_a-s_lib_ver.o)
                              /home/zhouhua/gcc-arm-none-eabi-7-2017-q4-major/bin/../lib/gcc/arm-none-eabi/7.2.1/../../../../arm-none-eabi/lib/thumb/v7-m/libm.a(lib_a-wf_sqrt.o) (__fdlib_version)
/home/zhouhua/gcc-arm-none-eabi-7-2017-q4-major/bin/../lib/gcc/arm-none-eabi/7.2.1/../../../../arm-none-eabi/lib/thumb/v7-m/libm.a(lib_a-s_matherr.o)
                              /home/zhouhua/gcc-arm-none-eabi-7-2017-q4-major/bin/../lib/gcc/arm-none-eabi/7.2.1/../../../../arm-none-eabi/lib/thumb/v7-m/libm.a(lib_a-wf_sqrt.o) (matherr)
/home/zhouhua/gcc-arm-none-eabi-7-2017-q4-major/bin/../lib/gcc/arm-none-eabi/7.2.1/../../../../arm-none-eabi/lib/thumb/v7-m/libm.a(lib_a-sf_fabs.o)
                              /home/zhouhua/gcc-arm-none-eabi-7-2017-q4-major/bin/../lib/gcc/arm-none-eabi/7.2.1/../../../../arm-none-eabi/lib/thumb/v7-m/libm.a(lib_a-ef_rem_pio2.o) (fabsf)
/home/zhouhua/gcc-arm-none-eabi-7-2017-q4-major/bin/../lib/gcc/arm-none-eabi/7.2.1/../../../../arm-none-eabi/lib/thumb/v7-m/libm.a(lib_a-sf_scalbn.o)
                              /home/zhouhua/gcc-arm-none-eabi-7-2017-q4-major/bin/../lib/gcc/arm-none-eabi/7.2.1/../../../../arm-none-eabi/lib/thumb/v7-m/libm.a(lib_a-kf_rem_pio2.o) (scalbnf)
/home/zhouhua/gcc-arm-none-eabi-7-2017-q4-major/bin/../lib/gcc/arm-none-eabi/7.2.1/../../../../arm-none-eabi/lib/thumb/v7-m/libm.a(lib_a-sf_copysign.o)
                              /home/zhouhua/gcc-arm-none-eabi-7-2017-q4-major/bin/../lib/gcc/arm-none-eabi/7.2.1/../../../../arm-none-eabi/lib/thumb/v7-m/libm.a(lib_a-sf_scalbn.o) (copysignf)
/home/zhouhua/gcc-arm-none-eabi-7-2017-q4-major/bin/../lib/gcc/arm-none-eabi/7.2.1/thumb/v7-m/libgcc.a(_arm_addsubdf3.o)
                              /home/zhouhua/gcc-arm-none-eabi-7-2017-q4-major/bin/../lib/gcc/arm-none-eabi/7.2.1/../../../../arm-none-eabi/lib/thumb/v7-m/libm.a(lib_a-wf_sqrt.o) (__aeabi_f2d)
/home/zhouhua/gcc-arm-none-eabi-7-2017-q4-major/bin/../lib/gcc/arm-none-eabi/7.2.1/thumb/v7-m/libgcc.a(_arm_muldivdf3.o)
                              /home/zhouhua/gcc-arm-none-eabi-7-2017-q4-major/bin/../lib/gcc/arm-none-eabi/7.2.1/../../../../arm-none-eabi/lib/thumb/v7-m/libm.a(lib_a-wf_sqrt.o) (__aeabi_ddiv)
/home/zhouhua/gcc-arm-none-eabi-7-2017-q4-major/bin/../lib/gcc/arm-none-eabi/7.2.1/thumb/v7-m/libgcc.a(_arm_truncdfsf2.o)
                              /home/zhouhua/gcc-arm-none-eabi-7-2017-q4-major/bin/../lib/gcc/arm-none-eabi/7.2.1/../../../../arm-none-eabi/lib/thumb/v7-m/libm.a(lib_a-wf_sqrt.o) (__aeabi_d2f)
/home/zhouhua/gcc-arm-none-eabi-7-2017-q4-major/bin/../lib/gcc/arm-none-eabi/7.2.1/thumb/v7-m/libgcc.a(_arm_addsubsf3.o)
                              src/lib/mixer/libmixer.a(mixer_helicopter.cpp.obj) (__aeabi_fsub)
/home/zhouhua/gcc-arm-none-eabi-7-2017-q4-major/bin/../lib/gcc/arm-none-eabi/7.2.1/thumb/v7-m/libgcc.a(_arm_muldivsf3.o)
                              src/modules/px4iofirmware/libpx4iofirmware.a(px4io.c.obj) (__aeabi_fmul)
/home/zhouhua/gcc-arm-none-eabi-7-2017-q4-major/bin/../lib/gcc/arm-none-eabi/7.2.1/thumb/v7-m/libgcc.a(_arm_cmpsf2.o)
                              /home/zhouhua/gcc-arm-none-eabi-7-2017-q4-major/bin/../lib/gcc/arm-none-eabi/7.2.1/../../../../arm-none-eabi/lib/thumb/v7-m/libm.a(lib_a-ef_rem_pio2.o) (__aeabi_fcmpeq)
/home/zhouhua/gcc-arm-none-eabi-7-2017-q4-major/bin/../lib/gcc/arm-none-eabi/7.2.1/thumb/v7-m/libgcc.a(_arm_unordsf2.o)
                              src/lib/mixer/libmixer.a(mixer_helicopter.cpp.obj) (__aeabi_fcmpun)
/home/zhouhua/gcc-arm-none-eabi-7-2017-q4-major/bin/../lib/gcc/arm-none-eabi/7.2.1/thumb/v7-m/libgcc.a(_arm_fixsfsi.o)
                              src/modules/px4iofirmware/libpx4iofirmware.a(controls.c.obj) (__aeabi_f2iz)
/home/zhouhua/gcc-arm-none-eabi-7-2017-q4-major/bin/../lib/gcc/arm-none-eabi/7.2.1/thumb/v7-m/libgcc.a(_arm_fixunssfsi.o)
                              src/modules/px4iofirmware/libpx4iofirmware.a(pwm_limit.c.obj) (__aeabi_f2uiz)
/home/zhouhua/gcc-arm-none-eabi-7-2017-q4-major/bin/../lib/gcc/arm-none-eabi/7.2.1/thumb/v7-m/libgcc.a(_aeabi_uldivmod.o)
                              src/modules/px4iofirmware/libpx4iofirmware.a(pwm_limit.c.obj) (__aeabi_uldivmod)
/home/zhouhua/gcc-arm-none-eabi-7-2017-q4-major/bin/../lib/gcc/arm-none-eabi/7.2.1/thumb/v7-m/libgcc.a(_udivmoddi4.o)
                              /home/zhouhua/gcc-arm-none-eabi-7-2017-q4-major/bin/../lib/gcc/arm-none-eabi/7.2.1/thumb/v7-m/libgcc.a(_aeabi_uldivmod.o) (__udivmoddi4)
/home/zhouhua/gcc-arm-none-eabi-7-2017-q4-major/bin/../lib/gcc/arm-none-eabi/7.2.1/thumb/v7-m/libgcc.a(_dvmd_tls.o)
                              /home/zhouhua/gcc-arm-none-eabi-7-2017-q4-major/bin/../lib/gcc/arm-none-eabi/7.2.1/thumb/v7-m/libgcc.a(_aeabi_uldivmod.o) (__aeabi_ldiv0)
src/lib/perf/libperf.a(perf_counter.c.obj)
                              src/modules/px4iofirmware/libpx4iofirmware.a(px4io.c.obj) (perf_count)

Discarded input sections

 .text          0x0000000000000000        0x0 platforms/nuttx/CMakeFiles/nuttx_px4io-v2_default.elf.dir/__/__/src/platforms/empty.c.obj
 .data          0x0000000000000000        0x0 platforms/nuttx/CMakeFiles/nuttx_px4io-v2_default.elf.dir/__/__/src/platforms/empty.c.obj
 .bss           0x0000000000000000        0x0 platforms/nuttx/CMakeFiles/nuttx_px4io-v2_default.elf.dir/__/__/src/platforms/empty.c.obj
 .debug_info    0x0000000000000000       0x79 platforms/nuttx/CMakeFiles/nuttx_px4io-v2_default.elf.dir/__/__/src/platforms/empty.c.obj
 .debug_abbrev  0x0000000000000000       0x26 platforms/nuttx/CMakeFiles/nuttx_px4io-v2_default.elf.dir/__/__/src/platforms/empty.c.obj
 .debug_aranges
                0x0000000000000000       0x18 platforms/nuttx/CMakeFiles/nuttx_px4io-v2_default.elf.dir/__/__/src/platforms/empty.c.obj
 .debug_line    0x0000000000000000       0x1d platforms/nuttx/CMakeFiles/nuttx_px4io-v2_default.elf.dir/__/__/src/platforms/empty.c.obj
 .debug_str     0x0000000000000000      0x214 platforms/nuttx/CMakeFiles/nuttx_px4io-v2_default.elf.dir/__/__/src/platforms/empty.c.obj
 .comment       0x0000000000000000       0x7f platforms/nuttx/CMakeFiles/nuttx_px4io-v2_default.elf.dir/__/__/src/platforms/empty.c.obj
 .ARM.attributes
                0x0000000000000000       0x2f platforms/nuttx/CMakeFiles/nuttx_px4io-v2_default.elf.dir/__/__/src/platforms/empty.c.obj
 .text          0x0000000000000000        0x0 NuttX/nuttx/arch/arm/src/libarch.a(stm32_start.o)
 .data          0x0000000000000000        0x0 NuttX/nuttx/arch/arm/src/libarch.a(stm32_start.o)
 .bss           0x0000000000000000        0x0 NuttX/nuttx/arch/arm/src/libarch.a(stm32_start.o)
 .text          0x0000000000000000        0x0 NuttX/nuttx/arch/arm/src/libarch.a(stm32_rcc.o)
 .data          0x0000000000000000        0x0 NuttX/nuttx/arch/arm/src/libarch.a(stm32_rcc.o)
 .bss           0x0000000000000000        0x0 NuttX/nuttx/arch/arm/src/libarch.a(stm32_rcc.o)
 .text          0x0000000000000000        0x0 NuttX/nuttx/arch/arm/src/libarch.a(stm32_gpio.o)
 .data          0x0000000000000000        0x0 NuttX/nuttx/arch/arm/src/libarch.a(stm32_gpio.o)
 .bss           0x0000000000000000        0x0 NuttX/nuttx/arch/arm/src/libarch.a(stm32_gpio.o)
 .text          0x0000000000000000        0x0 NuttX/nuttx/arch/arm/src/libarch.a(stm32_lowputc.o)
 .data          0x0000000000000000        0x0 NuttX/nuttx/arch/arm/src/libarch.a(stm32_lowputc.o)
 .bss           0x0000000000000000        0x0 NuttX/nuttx/arch/arm/src/libarch.a(stm32_lowputc.o)
 .text          0x0000000000000000        0x0 NuttX/nuttx/arch/arm/src/libarch.a(stm32_serial.o)
 .data          0x0000000000000000        0x0 NuttX/nuttx/arch/arm/src/libarch.a(stm32_serial.o)
 .bss           0x0000000000000000        0x0 NuttX/nuttx/arch/arm/src/libarch.a(stm32_serial.o)
 .text          0x0000000000000000        0x0 NuttX/nuttx/arch/arm/src/libarch.a(up_modifyreg32.o)
 .data          0x0000000000000000        0x0 NuttX/nuttx/arch/arm/src/libarch.a(up_modifyreg32.o)
 .bss           0x0000000000000000        0x0 NuttX/nuttx/arch/arm/src/libarch.a(up_modifyreg32.o)
 .text          0x0000000000000000        0x0 NuttX/nuttx/arch/arm/src/libarch.a(up_vectors.o)
 .data          0x0000000000000000        0x0 NuttX/nuttx/arch/arm/src/libarch.a(up_vectors.o)
 .bss           0x0000000000000000        0x0 NuttX/nuttx/arch/arm/src/libarch.a(up_vectors.o)
 .data          0x0000000000000000        0x0 NuttX/nuttx/arch/arm/src/libarch.a(up_exception.o)
 .bss           0x0000000000000000        0x0 NuttX/nuttx/arch/arm/src/libarch.a(up_exception.o)
 .text          0x0000000000000000        0x0 NuttX/nuttx/arch/arm/src/libarch.a(stm32_irq.o)
 .data          0x0000000000000000        0x0 NuttX/nuttx/arch/arm/src/libarch.a(stm32_irq.o)
 .bss           0x0000000000000000        0x0 NuttX/nuttx/arch/arm/src/libarch.a(stm32_irq.o)
 .text          0x0000000000000000        0x0 NuttX/nuttx/arch/arm/src/libarch.a(stm32_dma.o)
 .data          0x0000000000000000        0x0 NuttX/nuttx/arch/arm/src/libarch.a(stm32_dma.o)
 .bss           0x0000000000000000        0x0 NuttX/nuttx/arch/arm/src/libarch.a(stm32_dma.o)
 .text          0x0000000000000000        0x0 NuttX/nuttx/arch/arm/src/libarch.a(up_assert.o)
 .data          0x0000000000000000        0x0 NuttX/nuttx/arch/arm/src/libarch.a(up_assert.o)
 .bss           0x0000000000000000        0x0 NuttX/nuttx/arch/arm/src/libarch.a(up_assert.o)
 .text          0x0000000000000000        0x0 NuttX/nuttx/arch/arm/src/libarch.a(up_doirq.o)
 .data          0x0000000000000000        0x0 NuttX/nuttx/arch/arm/src/libarch.a(up_doirq.o)
 .bss           0x0000000000000000        0x0 NuttX/nuttx/arch/arm/src/libarch.a(up_doirq.o)
 .text          0x0000000000000000        0x0 NuttX/nuttx/arch/arm/src/libarch.a(up_hardfault.o)
 .data          0x0000000000000000        0x0 NuttX/nuttx/arch/arm/src/libarch.a(up_hardfault.o)
 .bss           0x0000000000000000        0x0 NuttX/nuttx/arch/arm/src/libarch.a(up_hardfault.o)
 .text          0x0000000000000000        0x0 NuttX/nuttx/arch/arm/src/libarch.a(up_svcall.o)
 .data          0x0000000000000000        0x0 NuttX/nuttx/arch/arm/src/libarch.a(up_svcall.o)
 .bss           0x0000000000000000        0x0 NuttX/nuttx/arch/arm/src/libarch.a(up_svcall.o)
 .text          0x0000000000000000        0x0 NuttX/nuttx/arch/arm/src/libarch.a(up_checkstack.o)
 .data          0x0000000000000000        0x0 NuttX/nuttx/arch/arm/src/libarch.a(up_checkstack.o)
 .bss           0x0000000000000000        0x0 NuttX/nuttx/arch/arm/src/libarch.a(up_checkstack.o)
 .text.up_check_tcbstack_remain
                0x0000000000000000        0xe NuttX/nuttx/arch/arm/src/libarch.a(up_checkstack.o)
 .text.up_check_stack
                0x0000000000000000        0xc NuttX/nuttx/arch/arm/src/libarch.a(up_checkstack.o)
 .text.up_check_stack_remain
                0x0000000000000000        0xc NuttX/nuttx/arch/arm/src/libarch.a(up_checkstack.o)
 .text          0x0000000000000000        0x0 NuttX/nuttx/arch/arm/src/libarch.a(stm32_vectors.o)
 .data          0x0000000000000000        0x0 NuttX/nuttx/arch/arm/src/libarch.a(stm32_vectors.o)
 .bss           0x0000000000000000        0x0 NuttX/nuttx/arch/arm/src/libarch.a(stm32_vectors.o)
 .data          0x0000000000000000        0x0 NuttX/nuttx/libc/libc.a(arch_memcpy.o)
 .bss           0x0000000000000000        0x0 NuttX/nuttx/libc/libc.a(arch_memcpy.o)
 .text          0x0000000000000000        0x0 NuttX/nuttx/libc/libc.a(sem_init.o)
 .data          0x0000000000000000        0x0 NuttX/nuttx/libc/libc.a(sem_init.o)
 .bss           0x0000000000000000        0x0 NuttX/nuttx/libc/libc.a(sem_init.o)
 .text          0x0000000000000000        0x0 NuttX/nuttx/libc/libc.a(lib_abort.o)
 .data          0x0000000000000000        0x0 NuttX/nuttx/libc/libc.a(lib_abort.o)
 .bss           0x0000000000000000        0x0 NuttX/nuttx/libc/libc.a(lib_abort.o)
 .text          0x0000000000000000        0x0 NuttX/nuttx/libc/libc.a(lib_strcpy.o)
 .data          0x0000000000000000        0x0 NuttX/nuttx/libc/libc.a(lib_strcpy.o)
 .bss           0x0000000000000000        0x0 NuttX/nuttx/libc/libc.a(lib_strcpy.o)
 .text          0x0000000000000000        0x0 NuttX/nuttx/libc/libc.a(lib_syslog.o)
 .data          0x0000000000000000        0x0 NuttX/nuttx/libc/libc.a(lib_syslog.o)
 .bss           0x0000000000000000        0x0 NuttX/nuttx/libc/libc.a(lib_syslog.o)
 .text          0x0000000000000000        0x0 NuttX/nuttx/libc/libc.a(lib_setlogmask.o)
 .data          0x0000000000000000        0x0 NuttX/nuttx/libc/libc.a(lib_setlogmask.o)
 .bss           0x0000000000000000        0x0 NuttX/nuttx/libc/libc.a(lib_setlogmask.o)
 .text.setlogmask
                0x0000000000000000       0x20 NuttX/nuttx/libc/libc.a(lib_setlogmask.o)
 .text          0x0000000000000000        0x0 NuttX/nuttx/libc/libc.a(lib_cfgetspeed.o)
 .data          0x0000000000000000        0x0 NuttX/nuttx/libc/libc.a(lib_cfgetspeed.o)
 .bss           0x0000000000000000        0x0 NuttX/nuttx/libc/libc.a(lib_cfgetspeed.o)
 .text          0x0000000000000000        0x0 NuttX/nuttx/libc/libc.a(lib_cfsetspeed.o)
 .data          0x0000000000000000        0x0 NuttX/nuttx/libc/libc.a(lib_cfsetspeed.o)
 .bss           0x0000000000000000        0x0 NuttX/nuttx/libc/libc.a(lib_cfsetspeed.o)
 .text          0x0000000000000000        0x0 NuttX/nuttx/drivers/libdrivers.a(serial.o)
 .data          0x0000000000000000        0x0 NuttX/nuttx/drivers/libdrivers.a(serial.o)
 .bss           0x0000000000000000        0x0 NuttX/nuttx/drivers/libdrivers.a(serial.o)
 .text          0x0000000000000000        0x0 NuttX/nuttx/drivers/libdrivers.a(serial_io.o)
 .data          0x0000000000000000        0x0 NuttX/nuttx/drivers/libdrivers.a(serial_io.o)
 .bss           0x0000000000000000        0x0 NuttX/nuttx/drivers/libdrivers.a(serial_io.o)
 .text          0x0000000000000000        0x0 NuttX/nuttx/drivers/libdrivers.a(vsyslog.o)
 .data          0x0000000000000000        0x0 NuttX/nuttx/drivers/libdrivers.a(vsyslog.o)
 .bss           0x0000000000000000        0x0 NuttX/nuttx/drivers/libdrivers.a(vsyslog.o)
 .text          0x0000000000000000        0x0 NuttX/nuttx/drivers/libdrivers.a(syslog_stream.o)
 .data          0x0000000000000000        0x0 NuttX/nuttx/drivers/libdrivers.a(syslog_stream.o)
 .bss           0x0000000000000000        0x0 NuttX/nuttx/drivers/libdrivers.a(syslog_stream.o)
 .text          0x0000000000000000        0x0 NuttX/nuttx/drivers/libdrivers.a(syslog_emergstream.o)
 .data          0x0000000000000000        0x0 NuttX/nuttx/drivers/libdrivers.a(syslog_emergstream.o)
 .bss           0x0000000000000000        0x0 NuttX/nuttx/drivers/libdrivers.a(syslog_emergstream.o)
 .text          0x0000000000000000        0x0 NuttX/nuttx/drivers/libdrivers.a(syslog_putc.o)
 .data          0x0000000000000000        0x0 NuttX/nuttx/drivers/libdrivers.a(syslog_putc.o)
 .bss           0x0000000000000000        0x0 NuttX/nuttx/drivers/libdrivers.a(syslog_putc.o)
 .text          0x0000000000000000        0x0 NuttX/nuttx/drivers/libdrivers.a(syslog_force.o)
 .data          0x0000000000000000        0x0 NuttX/nuttx/drivers/libdrivers.a(syslog_force.o)
 .bss           0x0000000000000000        0x0 NuttX/nuttx/drivers/libdrivers.a(syslog_force.o)
 .text          0x0000000000000000        0x0 NuttX/nuttx/drivers/libdrivers.a(syslog_channel.o)
 .data          0x0000000000000000        0x0 NuttX/nuttx/drivers/libdrivers.a(syslog_channel.o)
 .bss           0x0000000000000000        0x0 NuttX/nuttx/drivers/libdrivers.a(syslog_channel.o)
 .text          0x0000000000000000        0x0 NuttX/nuttx/fs/libfs.a(fs_registerdriver.o)
 .data          0x0000000000000000        0x0 NuttX/nuttx/fs/libfs.a(fs_registerdriver.o)
 .bss           0x0000000000000000        0x0 NuttX/nuttx/fs/libfs.a(fs_registerdriver.o)
 .text          0x0000000000000000        0x0 NuttX/nuttx/fs/libfs.a(fs_inode.o)
 .data          0x0000000000000000        0x0 NuttX/nuttx/fs/libfs.a(fs_inode.o)
 .bss           0x0000000000000000        0x0 NuttX/nuttx/fs/libfs.a(fs_inode.o)
 .text          0x0000000000000000        0x0 NuttX/nuttx/fs/libfs.a(fs_inodereserve.o)
 .data          0x0000000000000000        0x0 NuttX/nuttx/fs/libfs.a(fs_inodereserve.o)
 .bss           0x0000000000000000        0x0 NuttX/nuttx/fs/libfs.a(fs_inodereserve.o)
 .text          0x0000000000000000        0x0 NuttX/nuttx/fs/libfs.a(fs_inodesearch.o)
 .data          0x0000000000000000        0x0 NuttX/nuttx/fs/libfs.a(fs_inodesearch.o)
 .bss           0x0000000000000000        0x0 NuttX/nuttx/fs/libfs.a(fs_inodesearch.o)
 .text          0x0000000000000000        0x0 NuttX/nuttx/mm/libmm.a(umm_zalloc.o)
 .data          0x0000000000000000        0x0 NuttX/nuttx/mm/libmm.a(umm_zalloc.o)
 .bss           0x0000000000000000        0x0 NuttX/nuttx/mm/libmm.a(umm_zalloc.o)
 .text          0x0000000000000000        0x0 NuttX/nuttx/mm/libmm.a(umm_globals.o)
 .data          0x0000000000000000        0x0 NuttX/nuttx/mm/libmm.a(umm_globals.o)
 .bss           0x0000000000000000        0x0 NuttX/nuttx/mm/libmm.a(umm_globals.o)
 .text          0x0000000000000000        0x0 NuttX/nuttx/mm/libmm.a(mm_zalloc.o)
 .data          0x0000000000000000        0x0 NuttX/nuttx/mm/libmm.a(mm_zalloc.o)
 .bss           0x0000000000000000        0x0 NuttX/nuttx/mm/libmm.a(mm_zalloc.o)
 .text          0x0000000000000000        0x0 NuttX/nuttx/mm/libmm.a(mm_malloc.o)
 .data          0x0000000000000000        0x0 NuttX/nuttx/mm/libmm.a(mm_malloc.o)
 .bss           0x0000000000000000        0x0 NuttX/nuttx/mm/libmm.a(mm_malloc.o)
 .text          0x0000000000000000        0x0 NuttX/nuttx/mm/libmm.a(mm_sem.o)
 .data          0x0000000000000000        0x0 NuttX/nuttx/mm/libmm.a(mm_sem.o)
 .bss           0x0000000000000000        0x0 NuttX/nuttx/mm/libmm.a(mm_sem.o)
 .text          0x0000000000000000        0x0 NuttX/nuttx/mm/libmm.a(mm_addfreechunk.o)
 .data          0x0000000000000000        0x0 NuttX/nuttx/mm/libmm.a(mm_addfreechunk.o)
 .bss           0x0000000000000000        0x0 NuttX/nuttx/mm/libmm.a(mm_addfreechunk.o)
 .text          0x0000000000000000        0x0 NuttX/nuttx/mm/libmm.a(mm_size2ndx.o)
 .data          0x0000000000000000        0x0 NuttX/nuttx/mm/libmm.a(mm_size2ndx.o)
 .bss           0x0000000000000000        0x0 NuttX/nuttx/mm/libmm.a(mm_size2ndx.o)
 .text          0x0000000000000000        0x0 NuttX/nuttx/sched/libsched.a(errno_getptr.o)
 .data          0x0000000000000000        0x0 NuttX/nuttx/sched/libsched.a(errno_getptr.o)
 .bss           0x0000000000000000        0x0 NuttX/nuttx/sched/libsched.a(errno_getptr.o)
 .text          0x0000000000000000        0x0 NuttX/nuttx/sched/libsched.a(os_start.o)
 .data          0x0000000000000000        0x0 NuttX/nuttx/sched/libsched.a(os_start.o)
 .bss           0x0000000000000000        0x0 NuttX/nuttx/sched/libsched.a(os_start.o)
 .text          0x0000000000000000        0x0 NuttX/nuttx/sched/libsched.a(os_bringup.o)
 .data          0x0000000000000000        0x0 NuttX/nuttx/sched/libsched.a(os_bringup.o)
 .bss           0x0000000000000000        0x0 NuttX/nuttx/sched/libsched.a(os_bringup.o)
 .text          0x0000000000000000        0x0 NuttX/nuttx/sched/libsched.a(irq_attach.o)
 .data          0x0000000000000000        0x0 NuttX/nuttx/sched/libsched.a(irq_attach.o)
 .bss           0x0000000000000000        0x0 NuttX/nuttx/sched/libsched.a(irq_attach.o)
 .text          0x0000000000000000        0x0 NuttX/nuttx/sched/libsched.a(irq_dispatch.o)
 .data          0x0000000000000000        0x0 NuttX/nuttx/sched/libsched.a(irq_dispatch.o)
 .bss           0x0000000000000000        0x0 NuttX/nuttx/sched/libsched.a(irq_dispatch.o)
 .text          0x0000000000000000        0x0 NuttX/nuttx/sched/libsched.a(irq_unexpectedisr.o)
 .data          0x0000000000000000        0x0 NuttX/nuttx/sched/libsched.a(irq_unexpectedisr.o)
 .bss           0x0000000000000000        0x0 NuttX/nuttx/sched/libsched.a(irq_unexpectedisr.o)
 .text          0x0000000000000000        0x0 NuttX/nuttx/sched/libsched.a(sched_garbage.o)
 .data          0x0000000000000000        0x0 NuttX/nuttx/sched/libsched.a(sched_garbage.o)
 .bss           0x0000000000000000        0x0 NuttX/nuttx/sched/libsched.a(sched_garbage.o)
 .text          0x0000000000000000        0x0 NuttX/nuttx/sched/libsched.a(sched_foreach.o)
 .data          0x0000000000000000        0x0 NuttX/nuttx/sched/libsched.a(sched_foreach.o)
 .bss           0x0000000000000000        0x0 NuttX/nuttx/sched/libsched.a(sched_foreach.o)
 .text          0x0000000000000000        0x0 NuttX/nuttx/sched/libsched.a(sched_idletask.o)
 .data          0x0000000000000000        0x0 NuttX/nuttx/sched/libsched.a(sched_idletask.o)
 .bss           0x0000000000000000        0x0 NuttX/nuttx/sched/libsched.a(sched_idletask.o)
 .text          0x0000000000000000        0x0 NuttX/nuttx/sched/libsched.a(sem_wait.o)
 .data          0x0000000000000000        0x0 NuttX/nuttx/sched/libsched.a(sem_wait.o)
 .bss           0x0000000000000000        0x0 NuttX/nuttx/sched/libsched.a(sem_wait.o)
 .text          0x0000000000000000        0x0 NuttX/nuttx/sched/libsched.a(sem_trywait.o)
 .data          0x0000000000000000        0x0 NuttX/nuttx/sched/libsched.a(sem_trywait.o)
 .bss           0x0000000000000000        0x0 NuttX/nuttx/sched/libsched.a(sem_trywait.o)
 .text          0x0000000000000000        0x0 NuttX/nuttx/sched/libsched.a(sem_post.o)
 .data          0x0000000000000000        0x0 NuttX/nuttx/sched/libsched.a(sem_post.o)
 .bss           0x0000000000000000        0x0 NuttX/nuttx/sched/libsched.a(sem_post.o)
 .text          0x0000000000000000        0x0 NuttX/nuttx/sched/libsched.a(sem_reset.o)
 .data          0x0000000000000000        0x0 NuttX/nuttx/sched/libsched.a(sem_reset.o)
 .bss           0x0000000000000000        0x0 NuttX/nuttx/sched/libsched.a(sem_reset.o)
 .text          0x0000000000000000        0x0 NuttX/nuttx/sched/libsched.a(task_create.o)
 .data          0x0000000000000000        0x0 NuttX/nuttx/sched/libsched.a(task_create.o)
 .bss           0x0000000000000000        0x0 NuttX/nuttx/sched/libsched.a(task_create.o)
 .text.kernel_thread
                0x0000000000000000       0x16 NuttX/nuttx/sched/libsched.a(task_create.o)
 .text          0x0000000000000000        0x0 NuttX/nuttx/sched/libsched.a(task_setup.o)
 .data          0x0000000000000000        0x0 NuttX/nuttx/sched/libsched.a(task_setup.o)
 .bss           0x0000000000000000        0x0 NuttX/nuttx/sched/libsched.a(task_setup.o)
 .text          0x0000000000000000        0x0 NuttX/nuttx/sched/libsched.a(task_activate.o)
 .data          0x0000000000000000        0x0 NuttX/nuttx/sched/libsched.a(task_activate.o)
 .bss           0x0000000000000000        0x0 NuttX/nuttx/sched/libsched.a(task_activate.o)
 .text          0x0000000000000000        0x0 NuttX/nuttx/sched/libsched.a(task_start.o)
 .data          0x0000000000000000        0x0 NuttX/nuttx/sched/libsched.a(task_start.o)
 .bss           0x0000000000000000        0x0 NuttX/nuttx/sched/libsched.a(task_start.o)
 .text          0x0000000000000000        0x0 NuttX/nuttx/sched/libsched.a(task_getpid.o)
 .data          0x0000000000000000        0x0 NuttX/nuttx/sched/libsched.a(task_getpid.o)
 .bss           0x0000000000000000        0x0 NuttX/nuttx/sched/libsched.a(task_getpid.o)
 .text          0x0000000000000000        0x0 NuttX/nuttx/sched/libsched.a(exit.o)
 .data          0x0000000000000000        0x0 NuttX/nuttx/sched/libsched.a(exit.o)
 .bss           0x0000000000000000        0x0 NuttX/nuttx/sched/libsched.a(exit.o)
 .text          0x0000000000000000        0x0 NuttX/nuttx/sched/libsched.a(group_create.o)
 .data          0x0000000000000000        0x0 NuttX/nuttx/sched/libsched.a(group_create.o)
 .bss           0x0000000000000000        0x0 NuttX/nuttx/sched/libsched.a(group_create.o)
 .text          0x0000000000000000        0x0 NuttX/nuttx/sched/libsched.a(group_setupidlefiles.o)
 .data          0x0000000000000000        0x0 NuttX/nuttx/sched/libsched.a(group_setupidlefiles.o)
 .bss           0x0000000000000000        0x0 NuttX/nuttx/sched/libsched.a(group_setupidlefiles.o)
 .text          0x0000000000000000        0x0 NuttX/nuttx/sched/libsched.a(group_setuptaskfiles.o)
 .data          0x0000000000000000        0x0 NuttX/nuttx/sched/libsched.a(group_setuptaskfiles.o)
 .bss           0x0000000000000000        0x0 NuttX/nuttx/sched/libsched.a(group_setuptaskfiles.o)
 .text          0x0000000000000000        0x0 NuttX/nuttx/sched/libsched.a(irq_initialize.o)
 .data          0x0000000000000000        0x0 NuttX/nuttx/sched/libsched.a(irq_initialize.o)
 .bss           0x0000000000000000        0x0 NuttX/nuttx/sched/libsched.a(irq_initialize.o)
 .text          0x0000000000000000        0x0 NuttX/nuttx/sched/libsched.a(sched_releasetcb.o)
 .data          0x0000000000000000        0x0 NuttX/nuttx/sched/libsched.a(sched_releasetcb.o)
 .bss           0x0000000000000000        0x0 NuttX/nuttx/sched/libsched.a(sched_releasetcb.o)
 .text          0x0000000000000000        0x0 NuttX/nuttx/sched/libsched.a(sched_lock.o)
 .data          0x0000000000000000        0x0 NuttX/nuttx/sched/libsched.a(sched_lock.o)
 .bss           0x0000000000000000        0x0 NuttX/nuttx/sched/libsched.a(sched_lock.o)
 .text          0x0000000000000000        0x0 NuttX/nuttx/sched/libsched.a(sched_unlock.o)
 .data          0x0000000000000000        0x0 NuttX/nuttx/sched/libsched.a(sched_unlock.o)
 .bss           0x0000000000000000        0x0 NuttX/nuttx/sched/libsched.a(sched_unlock.o)
 .text          0x0000000000000000        0x0 NuttX/nuttx/sched/libsched.a(task_exithook.o)
 .data          0x0000000000000000        0x0 NuttX/nuttx/sched/libsched.a(task_exithook.o)
 .bss           0x0000000000000000        0x0 NuttX/nuttx/sched/libsched.a(task_exithook.o)
 .text          0x0000000000000000        0x0 NuttX/nuttx/sched/libsched.a(task_recover.o)
 .data          0x0000000000000000        0x0 NuttX/nuttx/sched/libsched.a(task_recover.o)
 .bss           0x0000000000000000        0x0 NuttX/nuttx/sched/libsched.a(task_recover.o)
 .text          0x0000000000000000        0x0 NuttX/nuttx/sched/libsched.a(wd_recover.o)
 .data          0x0000000000000000        0x0 NuttX/nuttx/sched/libsched.a(wd_recover.o)
 .bss           0x0000000000000000        0x0 NuttX/nuttx/sched/libsched.a(wd_recover.o)
 .text          0x0000000000000000        0x0 NuttX/nuttx/sched/libsched.a(group_leave.o)
 .data          0x0000000000000000        0x0 NuttX/nuttx/sched/libsched.a(group_leave.o)
 .bss           0x0000000000000000        0x0 NuttX/nuttx/sched/libsched.a(group_leave.o)
 .text          0x0000000000000000        0x0 NuttX/nuttx/sched/libsched.a(sched_free.o)
 .data          0x0000000000000000        0x0 NuttX/nuttx/sched/libsched.a(sched_free.o)
 .bss           0x0000000000000000        0x0 NuttX/nuttx/sched/libsched.a(sched_free.o)
 .text          0x0000000000000000        0x0 NuttX/nuttx/sched/libsched.a(sem_recover.o)
 .data          0x0000000000000000        0x0 NuttX/nuttx/sched/libsched.a(sem_recover.o)
 .bss           0x0000000000000000        0x0 NuttX/nuttx/sched/libsched.a(sem_recover.o)
 .text          0x0000000000000000        0x0 NuttX/nuttx/sched/libsched.a(wd_cancel.o)
 .data          0x0000000000000000        0x0 NuttX/nuttx/sched/libsched.a(wd_cancel.o)
 .bss           0x0000000000000000        0x0 NuttX/nuttx/sched/libsched.a(wd_cancel.o)
 .text          0x0000000000000000        0x0 NuttX/nuttx/sched/libsched.a(wd_delete.o)
 .data          0x0000000000000000        0x0 NuttX/nuttx/sched/libsched.a(wd_delete.o)
 .bss           0x0000000000000000        0x0 NuttX/nuttx/sched/libsched.a(wd_delete.o)
 .text          0x0000000000000000        0x0 NuttX/nuttx/sched/libsched.a(wd_initialize.o)
 .data          0x0000000000000000        0x0 NuttX/nuttx/sched/libsched.a(wd_initialize.o)
 .bss           0x0000000000000000        0x0 NuttX/nuttx/sched/libsched.a(wd_initialize.o)
 .text          0x0000000000000000        0x0 NuttX/nuttx/arch/arm/src/libarch.a(stm32_allocateheap.o)
 .data          0x0000000000000000        0x0 NuttX/nuttx/arch/arm/src/libarch.a(stm32_allocateheap.o)
 .bss           0x0000000000000000        0x0 NuttX/nuttx/arch/arm/src/libarch.a(stm32_allocateheap.o)
 .text          0x0000000000000000        0x0 NuttX/nuttx/arch/arm/src/libarch.a(stm32_idle.o)
 .data          0x0000000000000000        0x0 NuttX/nuttx/arch/arm/src/libarch.a(stm32_idle.o)
 .bss           0x0000000000000000        0x0 NuttX/nuttx/arch/arm/src/libarch.a(stm32_idle.o)
 .text          0x0000000000000000        0x0 NuttX/nuttx/arch/arm/src/libarch.a(up_blocktask.o)
 .data          0x0000000000000000        0x0 NuttX/nuttx/arch/arm/src/libarch.a(up_blocktask.o)
 .bss           0x0000000000000000        0x0 NuttX/nuttx/arch/arm/src/libarch.a(up_blocktask.o)
 .text          0x0000000000000000        0x0 NuttX/nuttx/arch/arm/src/libarch.a(up_copyfullstate.o)
 .data          0x0000000000000000        0x0 NuttX/nuttx/arch/arm/src/libarch.a(up_copyfullstate.o)
 .bss           0x0000000000000000        0x0 NuttX/nuttx/arch/arm/src/libarch.a(up_copyfullstate.o)
 .text          0x0000000000000000        0x0 NuttX/nuttx/arch/arm/src/libarch.a(up_createstack.o)
 .data          0x0000000000000000        0x0 NuttX/nuttx/arch/arm/src/libarch.a(up_createstack.o)
 .bss           0x0000000000000000        0x0 NuttX/nuttx/arch/arm/src/libarch.a(up_createstack.o)
 .text          0x0000000000000000        0x0 NuttX/nuttx/arch/arm/src/libarch.a(up_mdelay.o)
 .data          0x0000000000000000        0x0 NuttX/nuttx/arch/arm/src/libarch.a(up_mdelay.o)
 .bss           0x0000000000000000        0x0 NuttX/nuttx/arch/arm/src/libarch.a(up_mdelay.o)
 .text          0x0000000000000000        0x0 NuttX/nuttx/arch/arm/src/libarch.a(up_exit.o)
 .data          0x0000000000000000        0x0 NuttX/nuttx/arch/arm/src/libarch.a(up_exit.o)
 .bss           0x0000000000000000        0x0 NuttX/nuttx/arch/arm/src/libarch.a(up_exit.o)
 .text          0x0000000000000000        0x0 NuttX/nuttx/arch/arm/src/libarch.a(up_initialize.o)
 .data          0x0000000000000000        0x0 NuttX/nuttx/arch/arm/src/libarch.a(up_initialize.o)
 .bss           0x0000000000000000        0x0 NuttX/nuttx/arch/arm/src/libarch.a(up_initialize.o)
 .text          0x0000000000000000        0x0 NuttX/nuttx/arch/arm/src/libarch.a(up_initialstate.o)
 .data          0x0000000000000000        0x0 NuttX/nuttx/arch/arm/src/libarch.a(up_initialstate.o)
 .bss           0x0000000000000000        0x0 NuttX/nuttx/arch/arm/src/libarch.a(up_initialstate.o)
 .text          0x0000000000000000        0x0 NuttX/nuttx/arch/arm/src/libarch.a(up_interruptcontext.o)
 .data          0x0000000000000000        0x0 NuttX/nuttx/arch/arm/src/libarch.a(up_interruptcontext.o)
 .bss           0x0000000000000000        0x0 NuttX/nuttx/arch/arm/src/libarch.a(up_interruptcontext.o)
 .text          0x0000000000000000        0x0 NuttX/nuttx/arch/arm/src/libarch.a(up_releasepending.o)
 .data          0x0000000000000000        0x0 NuttX/nuttx/arch/arm/src/libarch.a(up_releasepending.o)
 .bss           0x0000000000000000        0x0 NuttX/nuttx/arch/arm/src/libarch.a(up_releasepending.o)
 .text          0x0000000000000000        0x0 NuttX/nuttx/arch/arm/src/libarch.a(up_releasestack.o)
 .data          0x0000000000000000        0x0 NuttX/nuttx/arch/arm/src/libarch.a(up_releasestack.o)
 .bss           0x0000000000000000        0x0 NuttX/nuttx/arch/arm/src/libarch.a(up_releasestack.o)
 .text          0x0000000000000000        0x0 NuttX/nuttx/arch/arm/src/libarch.a(up_stackframe.o)
 .data          0x0000000000000000        0x0 NuttX/nuttx/arch/arm/src/libarch.a(up_stackframe.o)
 .bss           0x0000000000000000        0x0 NuttX/nuttx/arch/arm/src/libarch.a(up_stackframe.o)
 .text          0x0000000000000000        0x0 NuttX/nuttx/arch/arm/src/libarch.a(up_unblocktask.o)
 .data          0x0000000000000000        0x0 NuttX/nuttx/arch/arm/src/libarch.a(up_unblocktask.o)
 .bss           0x0000000000000000        0x0 NuttX/nuttx/arch/arm/src/libarch.a(up_unblocktask.o)
 .data          0x0000000000000000        0x0 NuttX/nuttx/arch/arm/src/libarch.a(up_fullcontextrestore.o)
 .bss           0x0000000000000000        0x0 NuttX/nuttx/arch/arm/src/libarch.a(up_fullcontextrestore.o)
 .data          0x0000000000000000        0x0 NuttX/nuttx/arch/arm/src/libarch.a(up_switchcontext.o)
 .bss           0x0000000000000000        0x0 NuttX/nuttx/arch/arm/src/libarch.a(up_switchcontext.o)
 .text          0x0000000000000000        0x0 NuttX/nuttx/arch/arm/src/libarch.a(stm32_timerisr.o)
 .data          0x0000000000000000        0x0 NuttX/nuttx/arch/arm/src/libarch.a(stm32_timerisr.o)
 .bss           0x0000000000000000        0x0 NuttX/nuttx/arch/arm/src/libarch.a(stm32_timerisr.o)
 .text          0x0000000000000000        0x0 NuttX/nuttx/libc/libc.a(sq_addlast.o)
 .data          0x0000000000000000        0x0 NuttX/nuttx/libc/libc.a(sq_addlast.o)
 .bss           0x0000000000000000        0x0 NuttX/nuttx/libc/libc.a(sq_addlast.o)
 .text          0x0000000000000000        0x0 NuttX/nuttx/libc/libc.a(sq_remfirst.o)
 .data          0x0000000000000000        0x0 NuttX/nuttx/libc/libc.a(sq_remfirst.o)
 .bss           0x0000000000000000        0x0 NuttX/nuttx/libc/libc.a(sq_remfirst.o)
 .text          0x0000000000000000        0x0 NuttX/nuttx/libc/libc.a(sq_remafter.o)
 .data          0x0000000000000000        0x0 NuttX/nuttx/libc/libc.a(sq_remafter.o)
 .bss           0x0000000000000000        0x0 NuttX/nuttx/libc/libc.a(sq_remafter.o)
 .text          0x0000000000000000        0x0 NuttX/nuttx/libc/libc.a(dq_addfirst.o)
 .data          0x0000000000000000        0x0 NuttX/nuttx/libc/libc.a(dq_addfirst.o)
 .bss           0x0000000000000000        0x0 NuttX/nuttx/libc/libc.a(dq_addfirst.o)
 .text          0x0000000000000000        0x0 NuttX/nuttx/libc/libc.a(dq_rem.o)
 .data          0x0000000000000000        0x0 NuttX/nuttx/libc/libc.a(dq_rem.o)
 .bss           0x0000000000000000        0x0 NuttX/nuttx/libc/libc.a(dq_rem.o)
 .text          0x0000000000000000        0x0 NuttX/nuttx/libc/libc.a(sem_setprotocol.o)
 .data          0x0000000000000000        0x0 NuttX/nuttx/libc/libc.a(sem_setprotocol.o)
 .bss           0x0000000000000000        0x0 NuttX/nuttx/libc/libc.a(sem_setprotocol.o)
 .text          0x0000000000000000        0x0 NuttX/nuttx/libc/libc.a(lib_libvsprintf.o)
 .data          0x0000000000000000        0x0 NuttX/nuttx/libc/libc.a(lib_libvsprintf.o)
 .bss           0x0000000000000000        0x0 NuttX/nuttx/libc/libc.a(lib_libvsprintf.o)
 .text          0x0000000000000000        0x0 NuttX/nuttx/libc/libc.a(lib_nulloutstream.o)
 .data          0x0000000000000000        0x0 NuttX/nuttx/libc/libc.a(lib_nulloutstream.o)
 .bss           0x0000000000000000        0x0 NuttX/nuttx/libc/libc.a(lib_nulloutstream.o)
 .text          0x0000000000000000        0x0 NuttX/nuttx/libc/libc.a(lib_libnoflush.o)
 .data          0x0000000000000000        0x0 NuttX/nuttx/libc/libc.a(lib_libnoflush.o)
 .bss           0x0000000000000000        0x0 NuttX/nuttx/libc/libc.a(lib_libnoflush.o)
 .text          0x0000000000000000        0x0 NuttX/nuttx/libc/libc.a(lib_memset.o)
 .data          0x0000000000000000        0x0 NuttX/nuttx/libc/libc.a(lib_memset.o)
 .bss           0x0000000000000000        0x0 NuttX/nuttx/libc/libc.a(lib_memset.o)
 .text          0x0000000000000000        0x0 NuttX/nuttx/libc/libc.a(lib_strchr.o)
 .data          0x0000000000000000        0x0 NuttX/nuttx/libc/libc.a(lib_strchr.o)
 .bss           0x0000000000000000        0x0 NuttX/nuttx/libc/libc.a(lib_strchr.o)
 .text          0x0000000000000000        0x0 NuttX/nuttx/libc/libc.a(lib_strlen.o)
 .data          0x0000000000000000        0x0 NuttX/nuttx/libc/libc.a(lib_strlen.o)
 .bss           0x0000000000000000        0x0 NuttX/nuttx/libc/libc.a(lib_strlen.o)
 .text          0x0000000000000000        0x0 NuttX/nuttx/libc/libc.a(lib_strnlen.o)
 .data          0x0000000000000000        0x0 NuttX/nuttx/libc/libc.a(lib_strnlen.o)
 .bss           0x0000000000000000        0x0 NuttX/nuttx/libc/libc.a(lib_strnlen.o)
 .text          0x0000000000000000        0x0 NuttX/nuttx/libc/libc.a(lib_strncpy.o)
 .data          0x0000000000000000        0x0 NuttX/nuttx/libc/libc.a(lib_strncpy.o)
 .bss           0x0000000000000000        0x0 NuttX/nuttx/libc/libc.a(lib_strncpy.o)
 .text          0x0000000000000000        0x0 NuttX/nuttx/drivers/libdrivers.a(syslog_initialize.o)
 .data          0x0000000000000000        0x0 NuttX/nuttx/drivers/libdrivers.a(syslog_initialize.o)
 .bss           0x0000000000000000        0x0 NuttX/nuttx/drivers/libdrivers.a(syslog_initialize.o)
 .text          0x0000000000000000        0x0 NuttX/nuttx/drivers/libdrivers.a(syslog_consolechannel.o)
 .data          0x0000000000000000        0x0 NuttX/nuttx/drivers/libdrivers.a(syslog_consolechannel.o)
 .bss           0x0000000000000000        0x0 NuttX/nuttx/drivers/libdrivers.a(syslog_consolechannel.o)
 .text          0x0000000000000000        0x0 NuttX/nuttx/drivers/libdrivers.a(syslog_device.o)
 .data          0x0000000000000000        0x0 NuttX/nuttx/drivers/libdrivers.a(syslog_device.o)
 .bss           0x0000000000000000        0x0 NuttX/nuttx/drivers/libdrivers.a(syslog_device.o)
 .text.syslog_dev_write
                0x0000000000000000       0xd8 NuttX/nuttx/drivers/libdrivers.a(syslog_device.o)
 .text          0x0000000000000000        0x0 NuttX/nuttx/fs/libfs.a(fs_initialize.o)
 .data          0x0000000000000000        0x0 NuttX/nuttx/fs/libfs.a(fs_initialize.o)
 .bss           0x0000000000000000        0x0 NuttX/nuttx/fs/libfs.a(fs_initialize.o)
 .text          0x0000000000000000        0x0 NuttX/nuttx/fs/libfs.a(fs_files.o)
 .data          0x0000000000000000        0x0 NuttX/nuttx/fs/libfs.a(fs_files.o)
 .bss           0x0000000000000000        0x0 NuttX/nuttx/fs/libfs.a(fs_files.o)
 .text          0x0000000000000000        0x0 NuttX/nuttx/fs/libfs.a(fs_inodeaddref.o)
 .data          0x0000000000000000        0x0 NuttX/nuttx/fs/libfs.a(fs_inodeaddref.o)
 .bss           0x0000000000000000        0x0 NuttX/nuttx/fs/libfs.a(fs_inodeaddref.o)
 .text          0x0000000000000000        0x0 NuttX/nuttx/fs/libfs.a(fs_inoderelease.o)
 .data          0x0000000000000000        0x0 NuttX/nuttx/fs/libfs.a(fs_inoderelease.o)
 .bss           0x0000000000000000        0x0 NuttX/nuttx/fs/libfs.a(fs_inoderelease.o)
 .text          0x0000000000000000        0x0 NuttX/nuttx/fs/libfs.a(fs_filedetach.o)
 .data          0x0000000000000000        0x0 NuttX/nuttx/fs/libfs.a(fs_filedetach.o)
 .bss           0x0000000000000000        0x0 NuttX/nuttx/fs/libfs.a(fs_filedetach.o)
 .text.file_close_detached
                0x0000000000000000       0x2c NuttX/nuttx/fs/libfs.a(fs_filedetach.o)
 .text          0x0000000000000000        0x0 NuttX/nuttx/fs/libfs.a(fs_close.o)
 .data          0x0000000000000000        0x0 NuttX/nuttx/fs/libfs.a(fs_close.o)
 .bss           0x0000000000000000        0x0 NuttX/nuttx/fs/libfs.a(fs_close.o)
 .text          0x0000000000000000        0x0 NuttX/nuttx/fs/libfs.a(fs_dupfd2.o)
 .data          0x0000000000000000        0x0 NuttX/nuttx/fs/libfs.a(fs_dupfd2.o)
 .bss           0x0000000000000000        0x0 NuttX/nuttx/fs/libfs.a(fs_dupfd2.o)
 .text          0x0000000000000000        0x0 NuttX/nuttx/fs/libfs.a(fs_getfilep.o)
 .data          0x0000000000000000        0x0 NuttX/nuttx/fs/libfs.a(fs_getfilep.o)
 .bss           0x0000000000000000        0x0 NuttX/nuttx/fs/libfs.a(fs_getfilep.o)
 .text          0x0000000000000000        0x0 NuttX/nuttx/fs/libfs.a(fs_open.o)
 .data          0x0000000000000000        0x0 NuttX/nuttx/fs/libfs.a(fs_open.o)
 .bss           0x0000000000000000        0x0 NuttX/nuttx/fs/libfs.a(fs_open.o)
 .text          0x0000000000000000        0x0 NuttX/nuttx/fs/libfs.a(fs_write.o)
 .data          0x0000000000000000        0x0 NuttX/nuttx/fs/libfs.a(fs_write.o)
 .bss           0x0000000000000000        0x0 NuttX/nuttx/fs/libfs.a(fs_write.o)
 .text          0x0000000000000000        0x0 NuttX/nuttx/fs/libfs.a(fs_inodefind.o)
 .data          0x0000000000000000        0x0 NuttX/nuttx/fs/libfs.a(fs_inodefind.o)
 .bss           0x0000000000000000        0x0 NuttX/nuttx/fs/libfs.a(fs_inodefind.o)
 .text          0x0000000000000000        0x0 NuttX/nuttx/fs/libfs.a(fs_inodefree.o)
 .data          0x0000000000000000        0x0 NuttX/nuttx/fs/libfs.a(fs_inodefree.o)
 .bss           0x0000000000000000        0x0 NuttX/nuttx/fs/libfs.a(fs_inodefree.o)
 .text          0x0000000000000000        0x0 NuttX/nuttx/mm/libmm.a(umm_initialize.o)
 .data          0x0000000000000000        0x0 NuttX/nuttx/mm/libmm.a(umm_initialize.o)
 .bss           0x0000000000000000        0x0 NuttX/nuttx/mm/libmm.a(umm_initialize.o)
 .text          0x0000000000000000        0x0 NuttX/nuttx/mm/libmm.a(umm_sem.o)
 .data          0x0000000000000000        0x0 NuttX/nuttx/mm/libmm.a(umm_sem.o)
 .bss           0x0000000000000000        0x0 NuttX/nuttx/mm/libmm.a(umm_sem.o)
 .text          0x0000000000000000        0x0 NuttX/nuttx/mm/libmm.a(umm_free.o)
 .data          0x0000000000000000        0x0 NuttX/nuttx/mm/libmm.a(umm_free.o)
 .bss           0x0000000000000000        0x0 NuttX/nuttx/mm/libmm.a(umm_free.o)
 .text          0x0000000000000000        0x0 NuttX/nuttx/mm/libmm.a(umm_malloc.o)
 .data          0x0000000000000000        0x0 NuttX/nuttx/mm/libmm.a(umm_malloc.o)
 .bss           0x0000000000000000        0x0 NuttX/nuttx/mm/libmm.a(umm_malloc.o)
 .text          0x0000000000000000        0x0 NuttX/nuttx/mm/libmm.a(mm_initialize.o)
 .data          0x0000000000000000        0x0 NuttX/nuttx/mm/libmm.a(mm_initialize.o)
 .bss           0x0000000000000000        0x0 NuttX/nuttx/mm/libmm.a(mm_initialize.o)
 .text          0x0000000000000000        0x0 NuttX/nuttx/mm/libmm.a(mm_free.o)
 .data          0x0000000000000000        0x0 NuttX/nuttx/mm/libmm.a(mm_free.o)
 .bss           0x0000000000000000        0x0 NuttX/nuttx/mm/libmm.a(mm_free.o)
 .text          0x0000000000000000        0x0 NuttX/nuttx/sched/libsched.a(sched_getfiles.o)
 .data          0x0000000000000000        0x0 NuttX/nuttx/sched/libsched.a(sched_getfiles.o)
 .bss           0x0000000000000000        0x0 NuttX/nuttx/sched/libsched.a(sched_getfiles.o)
 .text          0x0000000000000000        0x0 NuttX/nuttx/sched/libsched.a(sched_addreadytorun.o)
 .data          0x0000000000000000        0x0 NuttX/nuttx/sched/libsched.a(sched_addreadytorun.o)
 .bss           0x0000000000000000        0x0 NuttX/nuttx/sched/libsched.a(sched_addreadytorun.o)
 .text          0x0000000000000000        0x0 NuttX/nuttx/sched/libsched.a(sched_removereadytorun.o)
 .data          0x0000000000000000        0x0 NuttX/nuttx/sched/libsched.a(sched_removereadytorun.o)
 .bss           0x0000000000000000        0x0 NuttX/nuttx/sched/libsched.a(sched_removereadytorun.o)
 .text          0x0000000000000000        0x0 NuttX/nuttx/sched/libsched.a(sched_addprioritized.o)
 .data          0x0000000000000000        0x0 NuttX/nuttx/sched/libsched.a(sched_addprioritized.o)
 .bss           0x0000000000000000        0x0 NuttX/nuttx/sched/libsched.a(sched_addprioritized.o)
 .text          0x0000000000000000        0x0 NuttX/nuttx/sched/libsched.a(sched_mergepending.o)
 .data          0x0000000000000000        0x0 NuttX/nuttx/sched/libsched.a(sched_mergepending.o)
 .bss           0x0000000000000000        0x0 NuttX/nuttx/sched/libsched.a(sched_mergepending.o)
 .text          0x0000000000000000        0x0 NuttX/nuttx/sched/libsched.a(sched_addblocked.o)
 .data          0x0000000000000000        0x0 NuttX/nuttx/sched/libsched.a(sched_addblocked.o)
 .bss           0x0000000000000000        0x0 NuttX/nuttx/sched/libsched.a(sched_addblocked.o)
 .text          0x0000000000000000        0x0 NuttX/nuttx/sched/libsched.a(sched_removeblocked.o)
 .data          0x0000000000000000        0x0 NuttX/nuttx/sched/libsched.a(sched_removeblocked.o)
 .bss           0x0000000000000000        0x0 NuttX/nuttx/sched/libsched.a(sched_removeblocked.o)
 .text          0x0000000000000000        0x0 NuttX/nuttx/sched/libsched.a(sched_processtimer.o)
 .data          0x0000000000000000        0x0 NuttX/nuttx/sched/libsched.a(sched_processtimer.o)
 .bss           0x0000000000000000        0x0 NuttX/nuttx/sched/libsched.a(sched_processtimer.o)
 .text          0x0000000000000000        0x0 NuttX/nuttx/sched/libsched.a(sem_destroy.o)
 .data          0x0000000000000000        0x0 NuttX/nuttx/sched/libsched.a(sem_destroy.o)
 .bss           0x0000000000000000        0x0 NuttX/nuttx/sched/libsched.a(sem_destroy.o)
 .text          0x0000000000000000        0x0 NuttX/nuttx/sched/libsched.a(task_exit.o)
 .data          0x0000000000000000        0x0 NuttX/nuttx/sched/libsched.a(task_exit.o)
 .bss           0x0000000000000000        0x0 NuttX/nuttx/sched/libsched.a(task_exit.o)
 .text          0x0000000000000000        0x0 NuttX/nuttx/sched/libsched.a(task_terminate.o)
 .data          0x0000000000000000        0x0 NuttX/nuttx/sched/libsched.a(task_terminate.o)
 .bss           0x0000000000000000        0x0 NuttX/nuttx/sched/libsched.a(task_terminate.o)
 .text          0x0000000000000000        0x0 NuttX/nuttx/sched/libsched.a(wd_start.o)
 .data          0x0000000000000000        0x0 NuttX/nuttx/sched/libsched.a(wd_start.o)
 .bss           0x0000000000000000        0x0 NuttX/nuttx/sched/libsched.a(wd_start.o)
 .text.wd_start
                0x0000000000000000       0xe4 NuttX/nuttx/sched/libsched.a(wd_start.o)
 .text          0x0000000000000000        0x0 NuttX/nuttx/sched/libsched.a(sched_gettcb.o)
 .data          0x0000000000000000        0x0 NuttX/nuttx/sched/libsched.a(sched_gettcb.o)
 .bss           0x0000000000000000        0x0 NuttX/nuttx/sched/libsched.a(sched_gettcb.o)
 .text          0x0000000000000000        0x0 NuttX/nuttx/libc/libc.a(sq_addfirst.o)
 .data          0x0000000000000000        0x0 NuttX/nuttx/libc/libc.a(sq_addfirst.o)
 .bss           0x0000000000000000        0x0 NuttX/nuttx/libc/libc.a(sq_addfirst.o)
 .text          0x0000000000000000        0x0 NuttX/nuttx/libc/libc.a(sq_addafter.o)
 .data          0x0000000000000000        0x0 NuttX/nuttx/libc/libc.a(sq_addafter.o)
 .bss           0x0000000000000000        0x0 NuttX/nuttx/libc/libc.a(sq_addafter.o)
 .text          0x0000000000000000        0x0 NuttX/nuttx/libc/libc.a(dq_addlast.o)
 .data          0x0000000000000000        0x0 NuttX/nuttx/libc/libc.a(dq_addlast.o)
 .bss           0x0000000000000000        0x0 NuttX/nuttx/libc/libc.a(dq_addlast.o)
 .text          0x0000000000000000        0x0 NuttX/nuttx/libc/libc.a(lib_strdup.o)
 .data          0x0000000000000000        0x0 NuttX/nuttx/libc/libc.a(lib_strdup.o)
 .bss           0x0000000000000000        0x0 NuttX/nuttx/libc/libc.a(lib_strdup.o)
 .text          0x0000000000000000        0x0 src/modules/px4iofirmware/libpx4iofirmware.a(px4io.c.obj)
 .data          0x0000000000000000        0x0 src/modules/px4iofirmware/libpx4iofirmware.a(px4io.c.obj)
 .bss           0x0000000000000000        0x0 src/modules/px4iofirmware/libpx4iofirmware.a(px4io.c.obj)
 .text          0x0000000000000000        0x0 src/modules/px4iofirmware/libpx4iofirmware.a(registers.c.obj)
 .data          0x0000000000000000        0x0 src/modules/px4iofirmware/libpx4iofirmware.a(registers.c.obj)
 .bss           0x0000000000000000        0x0 src/modules/px4iofirmware/libpx4iofirmware.a(registers.c.obj)
 .text          0x0000000000000000        0x0 src/modules/px4iofirmware/libpx4iofirmware.a(safety.c.obj)
 .data          0x0000000000000000        0x0 src/modules/px4iofirmware/libpx4iofirmware.a(safety.c.obj)
 .bss           0x0000000000000000        0x0 src/modules/px4iofirmware/libpx4iofirmware.a(safety.c.obj)
 .text          0x0000000000000000        0x0 src/modules/px4iofirmware/libpx4iofirmware.a(serial.c.obj)
 .data          0x0000000000000000        0x0 src/modules/px4iofirmware/libpx4iofirmware.a(serial.c.obj)
 .bss           0x0000000000000000        0x0 src/modules/px4iofirmware/libpx4iofirmware.a(serial.c.obj)
 .text          0x0000000000000000        0x0 src/modules/px4iofirmware/libpx4iofirmware.a(pwm_limit.c.obj)
 .data          0x0000000000000000        0x0 src/modules/px4iofirmware/libpx4iofirmware.a(pwm_limit.c.obj)
 .bss           0x0000000000000000        0x0 src/modules/px4iofirmware/libpx4iofirmware.a(pwm_limit.c.obj)
 .text          0x0000000000000000        0x0 src/modules/px4iofirmware/libpx4iofirmware.a(adc.c.obj)
 .data          0x0000000000000000        0x0 src/modules/px4iofirmware/libpx4iofirmware.a(adc.c.obj)
 .bss           0x0000000000000000        0x0 src/modules/px4iofirmware/libpx4iofirmware.a(adc.c.obj)
 .text          0x0000000000000000        0x0 src/modules/px4iofirmware/libpx4iofirmware.a(controls.c.obj)
 .data          0x0000000000000000        0x0 src/modules/px4iofirmware/libpx4iofirmware.a(controls.c.obj)
 .bss           0x0000000000000000        0x0 src/modules/px4iofirmware/libpx4iofirmware.a(controls.c.obj)
 .text          0x0000000000000000        0x0 src/modules/px4iofirmware/libpx4iofirmware.a(mixer.cpp.obj)
 .data          0x0000000000000000        0x0 src/modules/px4iofirmware/libpx4iofirmware.a(mixer.cpp.obj)
 .bss           0x0000000000000000        0x0 src/modules/px4iofirmware/libpx4iofirmware.a(mixer.cpp.obj)
 .text          0x0000000000000000        0x0 NuttX/apps/libapps.a(gnu_cxxinitialize.o)
 .data          0x0000000000000000        0x0 NuttX/apps/libapps.a(gnu_cxxinitialize.o)
 .bss           0x0000000000000000        0x0 NuttX/apps/libapps.a(gnu_cxxinitialize.o)
 .text          0x0000000000000000        0x0 NuttX/nuttx/arch/arm/src/libarch.a(up_udelay.o)
 .data          0x0000000000000000        0x0 NuttX/nuttx/arch/arm/src/libarch.a(up_udelay.o)
 .bss           0x0000000000000000        0x0 NuttX/nuttx/arch/arm/src/libarch.a(up_udelay.o)
 .text          0x0000000000000000        0x0 NuttX/nuttx/arch/arm/src/libarch.a(up_systemreset.o)
 .data          0x0000000000000000        0x0 NuttX/nuttx/arch/arm/src/libarch.a(up_systemreset.o)
 .bss           0x0000000000000000        0x0 NuttX/nuttx/arch/arm/src/libarch.a(up_systemreset.o)
 .text          0x0000000000000000        0x0 src/drivers/boards/px4io-v2/libdrivers_board.a(init.c.obj)
 .data          0x0000000000000000        0x0 src/drivers/boards/px4io-v2/libdrivers_board.a(init.c.obj)
 .bss           0x0000000000000000        0x0 src/drivers/boards/px4io-v2/libdrivers_board.a(init.c.obj)
 .text          0x0000000000000000        0x0 src/drivers/stm32/libdrivers_arch.a(drv_hrt.c.obj)
 .data          0x0000000000000000        0x0 src/drivers/stm32/libdrivers_arch.a(drv_hrt.c.obj)
 .bss           0x0000000000000000        0x0 src/drivers/stm32/libdrivers_arch.a(drv_hrt.c.obj)
 .text.ts_to_abstime
                0x0000000000000000       0x20 src/drivers/stm32/libdrivers_arch.a(drv_hrt.c.obj)
 .text.abstime_to_ts
                0x0000000000000000       0x30 src/drivers/stm32/libdrivers_arch.a(drv_hrt.c.obj)
 .text.hrt_store_absolute_time
                0x0000000000000000       0x18 src/drivers/stm32/libdrivers_arch.a(drv_hrt.c.obj)
 .text.hrt_call_after
                0x0000000000000000       0x2c src/drivers/stm32/libdrivers_arch.a(drv_hrt.c.obj)
 .text.hrt_call_at
                0x0000000000000000       0x1c src/drivers/stm32/libdrivers_arch.a(drv_hrt.c.obj)
 .text.hrt_called
                0x0000000000000000        0xe src/drivers/stm32/libdrivers_arch.a(drv_hrt.c.obj)
 .text.hrt_cancel
                0x0000000000000000       0x2c src/drivers/stm32/libdrivers_arch.a(drv_hrt.c.obj)
 .text.hrt_call_init
                0x0000000000000000        0x8 src/drivers/stm32/libdrivers_arch.a(drv_hrt.c.obj)
 .text.hrt_call_delay
                0x0000000000000000       0x18 src/drivers/stm32/libdrivers_arch.a(drv_hrt.c.obj)
 .rodata.latency_bucket_count
                0x0000000000000000        0x2 src/drivers/stm32/libdrivers_arch.a(drv_hrt.c.obj)
 .text          0x0000000000000000        0x0 src/drivers/stm32/libdrivers_arch.a(drv_pwm_servo.c.obj)
 .data          0x0000000000000000        0x0 src/drivers/stm32/libdrivers_arch.a(drv_pwm_servo.c.obj)
 .bss           0x0000000000000000        0x0 src/drivers/stm32/libdrivers_arch.a(drv_pwm_servo.c.obj)
 .text.up_pwm_servo_get
                0x0000000000000000        0x4 src/drivers/stm32/libdrivers_arch.a(drv_pwm_servo.c.obj)
 .text.up_pwm_servo_set_rate
                0x0000000000000000       0x18 src/drivers/stm32/libdrivers_arch.a(drv_pwm_servo.c.obj)
 .text.up_pwm_servo_deinit
                0x0000000000000000        0x6 src/drivers/stm32/libdrivers_arch.a(drv_pwm_servo.c.obj)
 .text          0x0000000000000000        0x0 src/drivers/stm32/libdrivers_arch.a(drv_io_timer.c.obj)
 .data          0x0000000000000000        0x0 src/drivers/stm32/libdrivers_arch.a(drv_io_timer.c.obj)
 .bss           0x0000000000000000        0x0 src/drivers/stm32/libdrivers_arch.a(drv_io_timer.c.obj)
 .text.io_timer_handler3
                0x0000000000000000        0x4 src/drivers/stm32/libdrivers_arch.a(drv_io_timer.c.obj)
 .text.io_timer_handler4
                0x0000000000000000        0x4 src/drivers/stm32/libdrivers_arch.a(drv_io_timer.c.obj)
 .text.io_channel_get_ccr
                0x0000000000000000       0x44 src/drivers/stm32/libdrivers_arch.a(drv_io_timer.c.obj)
 .text          0x0000000000000000        0x0 src/drivers/boards/px4io-v2/libdrivers_board.a(timer_config.c.obj)
 .data          0x0000000000000000        0x0 src/drivers/boards/px4io-v2/libdrivers_board.a(timer_config.c.obj)
 .bss           0x0000000000000000        0x0 src/drivers/boards/px4io-v2/libdrivers_board.a(timer_config.c.obj)
 .group         0x0000000000000000        0x8 src/lib/mixer/libmixer.a(mixer_group.cpp.obj)
 .group         0x0000000000000000        0x8 src/lib/mixer/libmixer.a(mixer_group.cpp.obj)
 .text          0x0000000000000000        0x0 src/lib/mixer/libmixer.a(mixer_group.cpp.obj)
 .data          0x0000000000000000        0x0 src/lib/mixer/libmixer.a(mixer_group.cpp.obj)
 .bss           0x0000000000000000        0x0 src/lib/mixer/libmixer.a(mixer_group.cpp.obj)
 .text._ZN10MixerGroup9get_trimsEPs
                0x0000000000000000       0x50 src/lib/mixer/libmixer.a(mixer_group.cpp.obj)
 .text._ZN10MixerGroup5countEv
                0x0000000000000000        0xe src/lib/mixer/libmixer.a(mixer_group.cpp.obj)
 .group         0x0000000000000000        0x8 src/lib/mixer/libmixer.a(mixer_helicopter.cpp.obj)
 .group         0x0000000000000000        0x8 src/lib/mixer/libmixer.a(mixer_helicopter.cpp.obj)
 .group         0x0000000000000000        0x8 src/lib/mixer/libmixer.a(mixer_helicopter.cpp.obj)
 .group         0x0000000000000000        0x8 src/lib/mixer/libmixer.a(mixer_helicopter.cpp.obj)
 .group         0x0000000000000000        0x8 src/lib/mixer/libmixer.a(mixer_helicopter.cpp.obj)
 .group         0x0000000000000000        0x8 src/lib/mixer/libmixer.a(mixer_helicopter.cpp.obj)
 .group         0x0000000000000000       0x10 src/lib/mixer/libmixer.a(mixer_helicopter.cpp.obj)
 .text          0x0000000000000000        0x0 src/lib/mixer/libmixer.a(mixer_helicopter.cpp.obj)
 .data          0x0000000000000000        0x0 src/lib/mixer/libmixer.a(mixer_helicopter.cpp.obj)
 .bss           0x0000000000000000        0x0 src/lib/mixer/libmixer.a(mixer_helicopter.cpp.obj)
 .group         0x0000000000000000        0x8 src/lib/mixer/libmixer.a(mixer_multirotor.cpp.obj)
 .group         0x0000000000000000        0x8 src/lib/mixer/libmixer.a(mixer_multirotor.cpp.obj)
 .group         0x0000000000000000        0x8 src/lib/mixer/libmixer.a(mixer_multirotor.cpp.obj)
 .group         0x0000000000000000        0x8 src/lib/mixer/libmixer.a(mixer_multirotor.cpp.obj)
 .text          0x0000000000000000        0x0 src/lib/mixer/libmixer.a(mixer_multirotor.cpp.obj)
 .data          0x0000000000000000        0x0 src/lib/mixer/libmixer.a(mixer_multirotor.cpp.obj)
 .bss           0x0000000000000000        0x0 src/lib/mixer/libmixer.a(mixer_multirotor.cpp.obj)
 .group         0x0000000000000000        0x8 src/lib/mixer/libmixer.a(mixer_simple.cpp.obj)
 .group         0x0000000000000000        0x8 src/lib/mixer/libmixer.a(mixer_simple.cpp.obj)
 .group         0x0000000000000000        0x8 src/lib/mixer/libmixer.a(mixer_simple.cpp.obj)
 .text          0x0000000000000000        0x0 src/lib/mixer/libmixer.a(mixer_simple.cpp.obj)
 .data          0x0000000000000000        0x0 src/lib/mixer/libmixer.a(mixer_simple.cpp.obj)
 .bss           0x0000000000000000        0x0 src/lib/mixer/libmixer.a(mixer_simple.cpp.obj)
 .text._ZN5Mixer22set_max_delta_out_onceEf
                0x0000000000000000        0x2 src/lib/mixer/libmixer.a(mixer_simple.cpp.obj)
 .text._ZN5Mixer17set_thrust_factorEf
                0x0000000000000000        0x2 src/lib/mixer/libmixer.a(mixer_simple.cpp.obj)
 .text._ZN5Mixer11set_airmodeEb
                0x0000000000000000        0x2 src/lib/mixer/libmixer.a(mixer_simple.cpp.obj)
 .text._ZN11SimpleMixerC2EPFijhhRfEjP14mixer_simple_s
                0x0000000000000000       0x18 src/lib/mixer/libmixer.a(mixer_simple.cpp.obj)
 .text._ZN11SimpleMixer9pwm_inputEPFijhhRfEjjttt
                0x0000000000000000       0xac src/lib/mixer/libmixer.a(mixer_simple.cpp.obj)
 .text._ZN11SimpleMixer5checkEv
                0x0000000000000000       0x68 src/lib/mixer/libmixer.a(mixer_simple.cpp.obj)
 .group         0x0000000000000000        0x8 src/lib/mixer/libmixer.a(mixer.cpp.obj)
 .group         0x0000000000000000        0x8 src/lib/mixer/libmixer.a(mixer.cpp.obj)
 .group         0x0000000000000000        0x8 src/lib/mixer/libmixer.a(mixer.cpp.obj)
 .group         0x0000000000000000       0x10 src/lib/mixer/libmixer.a(mixer.cpp.obj)
 .group         0x0000000000000000        0x8 src/lib/mixer/libmixer.a(mixer.cpp.obj)
 .group         0x0000000000000000        0x8 src/lib/mixer/libmixer.a(mixer.cpp.obj)
 .group         0x0000000000000000        0x8 src/lib/mixer/libmixer.a(mixer.cpp.obj)
 .group         0x0000000000000000        0xc src/lib/mixer/libmixer.a(mixer.cpp.obj)
 .text          0x0000000000000000        0x0 src/lib/mixer/libmixer.a(mixer.cpp.obj)
 .data          0x0000000000000000        0x0 src/lib/mixer/libmixer.a(mixer.cpp.obj)
 .bss           0x0000000000000000        0x0 src/lib/mixer/libmixer.a(mixer.cpp.obj)
 .text._ZN5Mixer22set_max_delta_out_onceEf
                0x0000000000000000        0x2 src/lib/mixer/libmixer.a(mixer.cpp.obj)
 .text._ZN5Mixer17set_thrust_factorEf
                0x0000000000000000        0x2 src/lib/mixer/libmixer.a(mixer.cpp.obj)
 .text._ZN5Mixer11set_airmodeEb
                0x0000000000000000        0x2 src/lib/mixer/libmixer.a(mixer.cpp.obj)
 .text._ZN5Mixer11scale_checkER14mixer_scaler_s
                0x0000000000000000       0x5c src/lib/mixer/libmixer.a(mixer.cpp.obj)
 .text._ZN9NullMixerC2Ev
                0x0000000000000000       0x14 src/lib/mixer/libmixer.a(mixer.cpp.obj)
 .text          0x0000000000000000        0x0 src/lib/rc/librc.a(st24.cpp.obj)
 .data          0x0000000000000000        0x0 src/lib/rc/librc.a(st24.cpp.obj)
 .bss           0x0000000000000000        0x0 src/lib/rc/librc.a(st24.cpp.obj)
 .data.decode_states
                0x0000000000000000       0x18 src/lib/rc/librc.a(st24.cpp.obj)
 .rodata.str1.1
                0x0000000000000000       0x35 src/lib/rc/librc.a(st24.cpp.obj)
 .text          0x0000000000000000        0x0 src/lib/rc/librc.a(sumd.cpp.obj)
 .data          0x0000000000000000        0x0 src/lib/rc/librc.a(sumd.cpp.obj)
 .bss           0x0000000000000000        0x0 src/lib/rc/librc.a(sumd.cpp.obj)
 .text.sumd_crc8
                0x0000000000000000        0x6 src/lib/rc/librc.a(sumd.cpp.obj)
 .text          0x0000000000000000        0x0 src/lib/rc/librc.a(sbus.cpp.obj)
 .data          0x0000000000000000        0x0 src/lib/rc/librc.a(sbus.cpp.obj)
 .bss           0x0000000000000000        0x0 src/lib/rc/librc.a(sbus.cpp.obj)
 .text.sbus_dropped_frames
                0x0000000000000000        0xc src/lib/rc/librc.a(sbus.cpp.obj)
 .text          0x0000000000000000        0x0 src/lib/rc/librc.a(dsm.cpp.obj)
 .data          0x0000000000000000        0x0 src/lib/rc/librc.a(dsm.cpp.obj)
 .bss           0x0000000000000000        0x0 src/lib/rc/librc.a(dsm.cpp.obj)
 .text.dsm_deinit
                0x0000000000000000       0x1c src/lib/rc/librc.a(dsm.cpp.obj)
 .text          0x0000000000000000        0x0 src/lib/rc/librc.a(common_rc.cpp.obj)
 .data          0x0000000000000000        0x0 src/lib/rc/librc.a(common_rc.cpp.obj)
 .bss           0x0000000000000000        0x0 src/lib/rc/librc.a(common_rc.cpp.obj)
 .text          0x0000000000000000        0x0 NuttX/nuttx/libxx/libcxx.a(libxx_cxapurevirtual.o)
 .data          0x0000000000000000        0x0 NuttX/nuttx/libxx/libcxx.a(libxx_cxapurevirtual.o)
 .bss           0x0000000000000000        0x0 NuttX/nuttx/libxx/libcxx.a(libxx_cxapurevirtual.o)
 .text          0x0000000000000000        0x0 NuttX/nuttx/libxx/libcxx.a(libxx_eabi_atexit.o)
 .data          0x0000000000000000        0x0 NuttX/nuttx/libxx/libcxx.a(libxx_eabi_atexit.o)
 .bss           0x0000000000000000        0x0 NuttX/nuttx/libxx/libcxx.a(libxx_eabi_atexit.o)
 .text          0x0000000000000000        0x0 NuttX/nuttx/libxx/libcxx.a(libxx_cxa_atexit.o)
 .data          0x0000000000000000        0x0 NuttX/nuttx/libxx/libcxx.a(libxx_cxa_atexit.o)
 .bss           0x0000000000000000        0x0 NuttX/nuttx/libxx/libcxx.a(libxx_cxa_atexit.o)
 .text          0x0000000000000000        0x0 NuttX/nuttx/libxx/libcxx.a(libxx_delete.o)
 .data          0x0000000000000000        0x0 NuttX/nuttx/libxx/libcxx.a(libxx_delete.o)
 .bss           0x0000000000000000        0x0 NuttX/nuttx/libxx/libcxx.a(libxx_delete.o)
 .text          0x0000000000000000        0x0 NuttX/nuttx/libxx/libcxx.a(libxx_deletea.o)
 .data          0x0000000000000000        0x0 NuttX/nuttx/libxx/libcxx.a(libxx_deletea.o)
 .bss           0x0000000000000000        0x0 NuttX/nuttx/libxx/libcxx.a(libxx_deletea.o)
 .text          0x0000000000000000        0x0 NuttX/nuttx/libxx/libcxx.a(libxx_new.o)
 .data          0x0000000000000000        0x0 NuttX/nuttx/libxx/libcxx.a(libxx_new.o)
 .bss           0x0000000000000000        0x0 NuttX/nuttx/libxx/libcxx.a(libxx_new.o)
 .text          0x0000000000000000        0x0 NuttX/nuttx/libxx/libcxx.a(libxx_newa.o)
 .data          0x0000000000000000        0x0 NuttX/nuttx/libxx/libcxx.a(libxx_newa.o)
 .bss           0x0000000000000000        0x0 NuttX/nuttx/libxx/libcxx.a(libxx_newa.o)
 .text          0x0000000000000000        0x0 NuttX/nuttx/libc/libc.a(lib_crc32.o)
 .data          0x0000000000000000        0x0 NuttX/nuttx/libc/libc.a(lib_crc32.o)
 .bss           0x0000000000000000        0x0 NuttX/nuttx/libc/libc.a(lib_crc32.o)
 .text.crc32    0x0000000000000000        0x6 NuttX/nuttx/libc/libc.a(lib_crc32.o)
 .text          0x0000000000000000        0x0 NuttX/nuttx/libc/libc.a(sq_rem.o)
 .data          0x0000000000000000        0x0 NuttX/nuttx/libc/libc.a(sq_rem.o)
 .bss           0x0000000000000000        0x0 NuttX/nuttx/libc/libc.a(sq_rem.o)
 .text          0x0000000000000000        0x0 NuttX/nuttx/libc/libc.a(lib_printf.o)
 .data          0x0000000000000000        0x0 NuttX/nuttx/libc/libc.a(lib_printf.o)
 .bss           0x0000000000000000        0x0 NuttX/nuttx/libc/libc.a(lib_printf.o)
 .text          0x0000000000000000        0x0 NuttX/nuttx/libc/libc.a(lib_vsnprintf.o)
 .data          0x0000000000000000        0x0 NuttX/nuttx/libc/libc.a(lib_vsnprintf.o)
 .bss           0x0000000000000000        0x0 NuttX/nuttx/libc/libc.a(lib_vsnprintf.o)
 .text          0x0000000000000000        0x0 NuttX/nuttx/libc/libc.a(lib_memoutstream.o)
 .data          0x0000000000000000        0x0 NuttX/nuttx/libc/libc.a(lib_memoutstream.o)
 .bss           0x0000000000000000        0x0 NuttX/nuttx/libc/libc.a(lib_memoutstream.o)
 .text          0x0000000000000000        0x0 NuttX/nuttx/libc/libc.a(lib_sscanf.o)
 .data          0x0000000000000000        0x0 NuttX/nuttx/libc/libc.a(lib_sscanf.o)
 .bss           0x0000000000000000        0x0 NuttX/nuttx/libc/libc.a(lib_sscanf.o)
 .text          0x0000000000000000        0x0 NuttX/nuttx/libc/libc.a(lib_strtol.o)
 .data          0x0000000000000000        0x0 NuttX/nuttx/libc/libc.a(lib_strtol.o)
 .bss           0x0000000000000000        0x0 NuttX/nuttx/libc/libc.a(lib_strtol.o)
 .text          0x0000000000000000        0x0 NuttX/nuttx/libc/libc.a(lib_strtoul.o)
 .data          0x0000000000000000        0x0 NuttX/nuttx/libc/libc.a(lib_strtoul.o)
 .bss           0x0000000000000000        0x0 NuttX/nuttx/libc/libc.a(lib_strtoul.o)
 .text          0x0000000000000000        0x0 NuttX/nuttx/libc/libc.a(lib_checkbase.o)
 .data          0x0000000000000000        0x0 NuttX/nuttx/libc/libc.a(lib_checkbase.o)
 .bss           0x0000000000000000        0x0 NuttX/nuttx/libc/libc.a(lib_checkbase.o)
 .text          0x0000000000000000        0x0 NuttX/nuttx/libc/libc.a(lib_isbasedigit.o)
 .data          0x0000000000000000        0x0 NuttX/nuttx/libc/libc.a(lib_isbasedigit.o)
 .bss           0x0000000000000000        0x0 NuttX/nuttx/libc/libc.a(lib_isbasedigit.o)
 .text          0x0000000000000000        0x0 NuttX/nuttx/libc/libc.a(lib_memchr.o)
 .data          0x0000000000000000        0x0 NuttX/nuttx/libc/libc.a(lib_memchr.o)
 .bss           0x0000000000000000        0x0 NuttX/nuttx/libc/libc.a(lib_memchr.o)
 .text          0x0000000000000000        0x0 NuttX/nuttx/libc/libc.a(lib_memmove.o)
 .data          0x0000000000000000        0x0 NuttX/nuttx/libc/libc.a(lib_memmove.o)
 .bss           0x0000000000000000        0x0 NuttX/nuttx/libc/libc.a(lib_memmove.o)
 .text          0x0000000000000000        0x0 NuttX/nuttx/libc/libc.a(lib_skipspace.o)
 .data          0x0000000000000000        0x0 NuttX/nuttx/libc/libc.a(lib_skipspace.o)
 .bss           0x0000000000000000        0x0 NuttX/nuttx/libc/libc.a(lib_skipspace.o)
 .text          0x0000000000000000        0x0 NuttX/nuttx/libc/libc.a(lib_strcmp.o)
 .data          0x0000000000000000        0x0 NuttX/nuttx/libc/libc.a(lib_strcmp.o)
 .bss           0x0000000000000000        0x0 NuttX/nuttx/libc/libc.a(lib_strcmp.o)
 .text          0x0000000000000000        0x0 NuttX/nuttx/libc/libc.a(lib_strcspn.o)
 .data          0x0000000000000000        0x0 NuttX/nuttx/libc/libc.a(lib_strcspn.o)
 .bss           0x0000000000000000        0x0 NuttX/nuttx/libc/libc.a(lib_strcspn.o)
 .text          0x0000000000000000        0x0 NuttX/nuttx/libc/libc.a(lib_tcgetattr.o)
 .data          0x0000000000000000        0x0 NuttX/nuttx/libc/libc.a(lib_tcgetattr.o)
 .bss           0x0000000000000000        0x0 NuttX/nuttx/libc/libc.a(lib_tcgetattr.o)
 .text          0x0000000000000000        0x0 NuttX/nuttx/libc/libc.a(lib_tcsetattr.o)
 .data          0x0000000000000000        0x0 NuttX/nuttx/libc/libc.a(lib_tcsetattr.o)
 .bss           0x0000000000000000        0x0 NuttX/nuttx/libc/libc.a(lib_tcsetattr.o)
 .text          0x0000000000000000        0x0 NuttX/nuttx/fs/libfs.a(fs_ioctl.o)
 .data          0x0000000000000000        0x0 NuttX/nuttx/fs/libfs.a(fs_ioctl.o)
 .bss           0x0000000000000000        0x0 NuttX/nuttx/fs/libfs.a(fs_ioctl.o)
 .text          0x0000000000000000        0x0 NuttX/nuttx/fs/libfs.a(fs_read.o)
 .data          0x0000000000000000        0x0 NuttX/nuttx/fs/libfs.a(fs_read.o)
 .bss           0x0000000000000000        0x0 NuttX/nuttx/fs/libfs.a(fs_read.o)
 .text          0x0000000000000000        0x0 NuttX/nuttx/mm/libmm.a(umm_mallinfo.o)
 .data          0x0000000000000000        0x0 NuttX/nuttx/mm/libmm.a(umm_mallinfo.o)
 .bss           0x0000000000000000        0x0 NuttX/nuttx/mm/libmm.a(umm_mallinfo.o)
 .text          0x0000000000000000        0x0 NuttX/nuttx/mm/libmm.a(mm_mallinfo.o)
 .data          0x0000000000000000        0x0 NuttX/nuttx/mm/libmm.a(mm_mallinfo.o)
 .bss           0x0000000000000000        0x0 NuttX/nuttx/mm/libmm.a(mm_mallinfo.o)
 .text          0x0000000000000000        0x0 /home/zhouhua/gcc-arm-none-eabi-7-2017-q4-major/bin/../lib/gcc/arm-none-eabi/7.2.1/../../../../arm-none-eabi/lib/thumb/v7-m/libm.a(lib_a-sf_cos.o)
 .data          0x0000000000000000        0x0 /home/zhouhua/gcc-arm-none-eabi-7-2017-q4-major/bin/../lib/gcc/arm-none-eabi/7.2.1/../../../../arm-none-eabi/lib/thumb/v7-m/libm.a(lib_a-sf_cos.o)
 .bss           0x0000000000000000        0x0 /home/zhouhua/gcc-arm-none-eabi-7-2017-q4-major/bin/../lib/gcc/arm-none-eabi/7.2.1/../../../../arm-none-eabi/lib/thumb/v7-m/libm.a(lib_a-sf_cos.o)
 .text          0x0000000000000000        0x0 /home/zhouhua/gcc-arm-none-eabi-7-2017-q4-major/bin/../lib/gcc/arm-none-eabi/7.2.1/../../../../arm-none-eabi/lib/thumb/v7-m/libm.a(lib_a-sf_floor.o)
 .data          0x0000000000000000        0x0 /home/zhouhua/gcc-arm-none-eabi-7-2017-q4-major/bin/../lib/gcc/arm-none-eabi/7.2.1/../../../../arm-none-eabi/lib/thumb/v7-m/libm.a(lib_a-sf_floor.o)
 .bss           0x0000000000000000        0x0 /home/zhouhua/gcc-arm-none-eabi-7-2017-q4-major/bin/../lib/gcc/arm-none-eabi/7.2.1/../../../../arm-none-eabi/lib/thumb/v7-m/libm.a(lib_a-sf_floor.o)
 .text          0x0000000000000000        0x0 /home/zhouhua/gcc-arm-none-eabi-7-2017-q4-major/bin/../lib/gcc/arm-none-eabi/7.2.1/../../../../arm-none-eabi/lib/thumb/v7-m/libm.a(lib_a-sf_fmax.o)
 .data          0x0000000000000000        0x0 /home/zhouhua/gcc-arm-none-eabi-7-2017-q4-major/bin/../lib/gcc/arm-none-eabi/7.2.1/../../../../arm-none-eabi/lib/thumb/v7-m/libm.a(lib_a-sf_fmax.o)
 .bss           0x0000000000000000        0x0 /home/zhouhua/gcc-arm-none-eabi-7-2017-q4-major/bin/../lib/gcc/arm-none-eabi/7.2.1/../../../../arm-none-eabi/lib/thumb/v7-m/libm.a(lib_a-sf_fmax.o)
 .text          0x0000000000000000        0x0 /home/zhouhua/gcc-arm-none-eabi-7-2017-q4-major/bin/../lib/gcc/arm-none-eabi/7.2.1/../../../../arm-none-eabi/lib/thumb/v7-m/libm.a(lib_a-sf_fmin.o)
 .data          0x0000000000000000        0x0 /home/zhouhua/gcc-arm-none-eabi-7-2017-q4-major/bin/../lib/gcc/arm-none-eabi/7.2.1/../../../../arm-none-eabi/lib/thumb/v7-m/libm.a(lib_a-sf_fmin.o)
 .bss           0x0000000000000000        0x0 /home/zhouhua/gcc-arm-none-eabi-7-2017-q4-major/bin/../lib/gcc/arm-none-eabi/7.2.1/../../../../arm-none-eabi/lib/thumb/v7-m/libm.a(lib_a-sf_fmin.o)
 .text          0x0000000000000000        0x0 /home/zhouhua/gcc-arm-none-eabi-7-2017-q4-major/bin/../lib/gcc/arm-none-eabi/7.2.1/../../../../arm-none-eabi/lib/thumb/v7-m/libm.a(lib_a-sf_fpclassify.o)
 .data          0x0000000000000000        0x0 /home/zhouhua/gcc-arm-none-eabi-7-2017-q4-major/bin/../lib/gcc/arm-none-eabi/7.2.1/../../../../arm-none-eabi/lib/thumb/v7-m/libm.a(lib_a-sf_fpclassify.o)
 .bss           0x0000000000000000        0x0 /home/zhouhua/gcc-arm-none-eabi-7-2017-q4-major/bin/../lib/gcc/arm-none-eabi/7.2.1/../../../../arm-none-eabi/lib/thumb/v7-m/libm.a(lib_a-sf_fpclassify.o)
 .text          0x0000000000000000        0x0 /home/zhouhua/gcc-arm-none-eabi-7-2017-q4-major/bin/../lib/gcc/arm-none-eabi/7.2.1/../../../../arm-none-eabi/lib/thumb/v7-m/libm.a(lib_a-sf_sin.o)
 .data          0x0000000000000000        0x0 /home/zhouhua/gcc-arm-none-eabi-7-2017-q4-major/bin/../lib/gcc/arm-none-eabi/7.2.1/../../../../arm-none-eabi/lib/thumb/v7-m/libm.a(lib_a-sf_sin.o)
 .bss           0x0000000000000000        0x0 /home/zhouhua/gcc-arm-none-eabi-7-2017-q4-major/bin/../lib/gcc/arm-none-eabi/7.2.1/../../../../arm-none-eabi/lib/thumb/v7-m/libm.a(lib_a-sf_sin.o)
 .text          0x0000000000000000        0x0 /home/zhouhua/gcc-arm-none-eabi-7-2017-q4-major/bin/../lib/gcc/arm-none-eabi/7.2.1/../../../../arm-none-eabi/lib/thumb/v7-m/libm.a(lib_a-wf_sqrt.o)
 .data          0x0000000000000000        0x0 /home/zhouhua/gcc-arm-none-eabi-7-2017-q4-major/bin/../lib/gcc/arm-none-eabi/7.2.1/../../../../arm-none-eabi/lib/thumb/v7-m/libm.a(lib_a-wf_sqrt.o)
 .bss           0x0000000000000000        0x0 /home/zhouhua/gcc-arm-none-eabi-7-2017-q4-major/bin/../lib/gcc/arm-none-eabi/7.2.1/../../../../arm-none-eabi/lib/thumb/v7-m/libm.a(lib_a-wf_sqrt.o)
 .text          0x0000000000000000        0x0 /home/zhouhua/gcc-arm-none-eabi-7-2017-q4-major/bin/../lib/gcc/arm-none-eabi/7.2.1/../../../../arm-none-eabi/lib/thumb/v7-m/libm.a(lib_a-ef_rem_pio2.o)
 .data          0x0000000000000000        0x0 /home/zhouhua/gcc-arm-none-eabi-7-2017-q4-major/bin/../lib/gcc/arm-none-eabi/7.2.1/../../../../arm-none-eabi/lib/thumb/v7-m/libm.a(lib_a-ef_rem_pio2.o)
 .bss           0x0000000000000000        0x0 /home/zhouhua/gcc-arm-none-eabi-7-2017-q4-major/bin/../lib/gcc/arm-none-eabi/7.2.1/../../../../arm-none-eabi/lib/thumb/v7-m/libm.a(lib_a-ef_rem_pio2.o)
 .text          0x0000000000000000        0x0 /home/zhouhua/gcc-arm-none-eabi-7-2017-q4-major/bin/../lib/gcc/arm-none-eabi/7.2.1/../../../../arm-none-eabi/lib/thumb/v7-m/libm.a(lib_a-ef_sqrt.o)
 .data          0x0000000000000000        0x0 /home/zhouhua/gcc-arm-none-eabi-7-2017-q4-major/bin/../lib/gcc/arm-none-eabi/7.2.1/../../../../arm-none-eabi/lib/thumb/v7-m/libm.a(lib_a-ef_sqrt.o)
 .bss           0x0000000000000000        0x0 /home/zhouhua/gcc-arm-none-eabi-7-2017-q4-major/bin/../lib/gcc/arm-none-eabi/7.2.1/../../../../arm-none-eabi/lib/thumb/v7-m/libm.a(lib_a-ef_sqrt.o)
 .text          0x0000000000000000        0x0 /home/zhouhua/gcc-arm-none-eabi-7-2017-q4-major/bin/../lib/gcc/arm-none-eabi/7.2.1/../../../../arm-none-eabi/lib/thumb/v7-m/libm.a(lib_a-kf_cos.o)
 .data          0x0000000000000000        0x0 /home/zhouhua/gcc-arm-none-eabi-7-2017-q4-major/bin/../lib/gcc/arm-none-eabi/7.2.1/../../../../arm-none-eabi/lib/thumb/v7-m/libm.a(lib_a-kf_cos.o)
 .bss           0x0000000000000000        0x0 /home/zhouhua/gcc-arm-none-eabi-7-2017-q4-major/bin/../lib/gcc/arm-none-eabi/7.2.1/../../../../arm-none-eabi/lib/thumb/v7-m/libm.a(lib_a-kf_cos.o)
 .text          0x0000000000000000        0x0 /home/zhouhua/gcc-arm-none-eabi-7-2017-q4-major/bin/../lib/gcc/arm-none-eabi/7.2.1/../../../../arm-none-eabi/lib/thumb/v7-m/libm.a(lib_a-kf_rem_pio2.o)
 .data          0x0000000000000000        0x0 /home/zhouhua/gcc-arm-none-eabi-7-2017-q4-major/bin/../lib/gcc/arm-none-eabi/7.2.1/../../../../arm-none-eabi/lib/thumb/v7-m/libm.a(lib_a-kf_rem_pio2.o)
 .bss           0x0000000000000000        0x0 /home/zhouhua/gcc-arm-none-eabi-7-2017-q4-major/bin/../lib/gcc/arm-none-eabi/7.2.1/../../../../arm-none-eabi/lib/thumb/v7-m/libm.a(lib_a-kf_rem_pio2.o)
 .text          0x0000000000000000        0x0 /home/zhouhua/gcc-arm-none-eabi-7-2017-q4-major/bin/../lib/gcc/arm-none-eabi/7.2.1/../../../../arm-none-eabi/lib/thumb/v7-m/libm.a(lib_a-kf_sin.o)
 .data          0x0000000000000000        0x0 /home/zhouhua/gcc-arm-none-eabi-7-2017-q4-major/bin/../lib/gcc/arm-none-eabi/7.2.1/../../../../arm-none-eabi/lib/thumb/v7-m/libm.a(lib_a-kf_sin.o)
 .bss           0x0000000000000000        0x0 /home/zhouhua/gcc-arm-none-eabi-7-2017-q4-major/bin/../lib/gcc/arm-none-eabi/7.2.1/../../../../arm-none-eabi/lib/thumb/v7-m/libm.a(lib_a-kf_sin.o)
 .text          0x0000000000000000        0x0 /home/zhouhua/gcc-arm-none-eabi-7-2017-q4-major/bin/../lib/gcc/arm-none-eabi/7.2.1/../../../../arm-none-eabi/lib/thumb/v7-m/libm.a(lib_a-s_lib_ver.o)
 .data          0x0000000000000000        0x0 /home/zhouhua/gcc-arm-none-eabi-7-2017-q4-major/bin/../lib/gcc/arm-none-eabi/7.2.1/../../../../arm-none-eabi/lib/thumb/v7-m/libm.a(lib_a-s_lib_ver.o)
 .bss           0x0000000000000000        0x0 /home/zhouhua/gcc-arm-none-eabi-7-2017-q4-major/bin/../lib/gcc/arm-none-eabi/7.2.1/../../../../arm-none-eabi/lib/thumb/v7-m/libm.a(lib_a-s_lib_ver.o)
 .text          0x0000000000000000        0x0 /home/zhouhua/gcc-arm-none-eabi-7-2017-q4-major/bin/../lib/gcc/arm-none-eabi/7.2.1/../../../../arm-none-eabi/lib/thumb/v7-m/libm.a(lib_a-s_matherr.o)
 .data          0x0000000000000000        0x0 /home/zhouhua/gcc-arm-none-eabi-7-2017-q4-major/bin/../lib/gcc/arm-none-eabi/7.2.1/../../../../arm-none-eabi/lib/thumb/v7-m/libm.a(lib_a-s_matherr.o)
 .bss           0x0000000000000000        0x0 /home/zhouhua/gcc-arm-none-eabi-7-2017-q4-major/bin/../lib/gcc/arm-none-eabi/7.2.1/../../../../arm-none-eabi/lib/thumb/v7-m/libm.a(lib_a-s_matherr.o)
 .text          0x0000000000000000        0x0 /home/zhouhua/gcc-arm-none-eabi-7-2017-q4-major/bin/../lib/gcc/arm-none-eabi/7.2.1/../../../../arm-none-eabi/lib/thumb/v7-m/libm.a(lib_a-sf_fabs.o)
 .data          0x0000000000000000        0x0 /home/zhouhua/gcc-arm-none-eabi-7-2017-q4-major/bin/../lib/gcc/arm-none-eabi/7.2.1/../../../../arm-none-eabi/lib/thumb/v7-m/libm.a(lib_a-sf_fabs.o)
 .bss           0x0000000000000000        0x0 /home/zhouhua/gcc-arm-none-eabi-7-2017-q4-major/bin/../lib/gcc/arm-none-eabi/7.2.1/../../../../arm-none-eabi/lib/thumb/v7-m/libm.a(lib_a-sf_fabs.o)
 .text          0x0000000000000000        0x0 /home/zhouhua/gcc-arm-none-eabi-7-2017-q4-major/bin/../lib/gcc/arm-none-eabi/7.2.1/../../../../arm-none-eabi/lib/thumb/v7-m/libm.a(lib_a-sf_scalbn.o)
 .data          0x0000000000000000        0x0 /home/zhouhua/gcc-arm-none-eabi-7-2017-q4-major/bin/../lib/gcc/arm-none-eabi/7.2.1/../../../../arm-none-eabi/lib/thumb/v7-m/libm.a(lib_a-sf_scalbn.o)
 .bss           0x0000000000000000        0x0 /home/zhouhua/gcc-arm-none-eabi-7-2017-q4-major/bin/../lib/gcc/arm-none-eabi/7.2.1/../../../../arm-none-eabi/lib/thumb/v7-m/libm.a(lib_a-sf_scalbn.o)
 .text          0x0000000000000000        0x0 /home/zhouhua/gcc-arm-none-eabi-7-2017-q4-major/bin/../lib/gcc/arm-none-eabi/7.2.1/../../../../arm-none-eabi/lib/thumb/v7-m/libm.a(lib_a-sf_copysign.o)
 .data          0x0000000000000000        0x0 /home/zhouhua/gcc-arm-none-eabi-7-2017-q4-major/bin/../lib/gcc/arm-none-eabi/7.2.1/../../../../arm-none-eabi/lib/thumb/v7-m/libm.a(lib_a-sf_copysign.o)
 .bss           0x0000000000000000        0x0 /home/zhouhua/gcc-arm-none-eabi-7-2017-q4-major/bin/../lib/gcc/arm-none-eabi/7.2.1/../../../../arm-none-eabi/lib/thumb/v7-m/libm.a(lib_a-sf_copysign.o)
 .data          0x0000000000000000        0x0 /home/zhouhua/gcc-arm-none-eabi-7-2017-q4-major/bin/../lib/gcc/arm-none-eabi/7.2.1/thumb/v7-m/libgcc.a(_arm_addsubdf3.o)
 .bss           0x0000000000000000        0x0 /home/zhouhua/gcc-arm-none-eabi-7-2017-q4-major/bin/../lib/gcc/arm-none-eabi/7.2.1/thumb/v7-m/libgcc.a(_arm_addsubdf3.o)
 .data          0x0000000000000000        0x0 /home/zhouhua/gcc-arm-none-eabi-7-2017-q4-major/bin/../lib/gcc/arm-none-eabi/7.2.1/thumb/v7-m/libgcc.a(_arm_muldivdf3.o)
 .bss           0x0000000000000000        0x0 /home/zhouhua/gcc-arm-none-eabi-7-2017-q4-major/bin/../lib/gcc/arm-none-eabi/7.2.1/thumb/v7-m/libgcc.a(_arm_muldivdf3.o)
 .data          0x0000000000000000        0x0 /home/zhouhua/gcc-arm-none-eabi-7-2017-q4-major/bin/../lib/gcc/arm-none-eabi/7.2.1/thumb/v7-m/libgcc.a(_arm_truncdfsf2.o)
 .bss           0x0000000000000000        0x0 /home/zhouhua/gcc-arm-none-eabi-7-2017-q4-major/bin/../lib/gcc/arm-none-eabi/7.2.1/thumb/v7-m/libgcc.a(_arm_truncdfsf2.o)
 .data          0x0000000000000000        0x0 /home/zhouhua/gcc-arm-none-eabi-7-2017-q4-major/bin/../lib/gcc/arm-none-eabi/7.2.1/thumb/v7-m/libgcc.a(_arm_addsubsf3.o)
 .bss           0x0000000000000000        0x0 /home/zhouhua/gcc-arm-none-eabi-7-2017-q4-major/bin/../lib/gcc/arm-none-eabi/7.2.1/thumb/v7-m/libgcc.a(_arm_addsubsf3.o)
 .data          0x0000000000000000        0x0 /home/zhouhua/gcc-arm-none-eabi-7-2017-q4-major/bin/../lib/gcc/arm-none-eabi/7.2.1/thumb/v7-m/libgcc.a(_arm_muldivsf3.o)
 .bss           0x0000000000000000        0x0 /home/zhouhua/gcc-arm-none-eabi-7-2017-q4-major/bin/../lib/gcc/arm-none-eabi/7.2.1/thumb/v7-m/libgcc.a(_arm_muldivsf3.o)
 .data          0x0000000000000000        0x0 /home/zhouhua/gcc-arm-none-eabi-7-2017-q4-major/bin/../lib/gcc/arm-none-eabi/7.2.1/thumb/v7-m/libgcc.a(_arm_cmpsf2.o)
 .bss           0x0000000000000000        0x0 /home/zhouhua/gcc-arm-none-eabi-7-2017-q4-major/bin/../lib/gcc/arm-none-eabi/7.2.1/thumb/v7-m/libgcc.a(_arm_cmpsf2.o)
 .data          0x0000000000000000        0x0 /home/zhouhua/gcc-arm-none-eabi-7-2017-q4-major/bin/../lib/gcc/arm-none-eabi/7.2.1/thumb/v7-m/libgcc.a(_arm_unordsf2.o)
 .bss           0x0000000000000000        0x0 /home/zhouhua/gcc-arm-none-eabi-7-2017-q4-major/bin/../lib/gcc/arm-none-eabi/7.2.1/thumb/v7-m/libgcc.a(_arm_unordsf2.o)
 .data          0x0000000000000000        0x0 /home/zhouhua/gcc-arm-none-eabi-7-2017-q4-major/bin/../lib/gcc/arm-none-eabi/7.2.1/thumb/v7-m/libgcc.a(_arm_fixsfsi.o)
 .bss           0x0000000000000000        0x0 /home/zhouhua/gcc-arm-none-eabi-7-2017-q4-major/bin/../lib/gcc/arm-none-eabi/7.2.1/thumb/v7-m/libgcc.a(_arm_fixsfsi.o)
 .data          0x0000000000000000        0x0 /home/zhouhua/gcc-arm-none-eabi-7-2017-q4-major/bin/../lib/gcc/arm-none-eabi/7.2.1/thumb/v7-m/libgcc.a(_arm_fixunssfsi.o)
 .bss           0x0000000000000000        0x0 /home/zhouhua/gcc-arm-none-eabi-7-2017-q4-major/bin/../lib/gcc/arm-none-eabi/7.2.1/thumb/v7-m/libgcc.a(_arm_fixunssfsi.o)
 .data          0x0000000000000000        0x0 /home/zhouhua/gcc-arm-none-eabi-7-2017-q4-major/bin/../lib/gcc/arm-none-eabi/7.2.1/thumb/v7-m/libgcc.a(_aeabi_uldivmod.o)
 .bss           0x0000000000000000        0x0 /home/zhouhua/gcc-arm-none-eabi-7-2017-q4-major/bin/../lib/gcc/arm-none-eabi/7.2.1/thumb/v7-m/libgcc.a(_aeabi_uldivmod.o)
 .data          0x0000000000000000        0x0 /home/zhouhua/gcc-arm-none-eabi-7-2017-q4-major/bin/../lib/gcc/arm-none-eabi/7.2.1/thumb/v7-m/libgcc.a(_udivmoddi4.o)
 .bss           0x0000000000000000        0x0 /home/zhouhua/gcc-arm-none-eabi-7-2017-q4-major/bin/../lib/gcc/arm-none-eabi/7.2.1/thumb/v7-m/libgcc.a(_udivmoddi4.o)
 .ARM.extab     0x0000000000000000        0x0 /home/zhouhua/gcc-arm-none-eabi-7-2017-q4-major/bin/../lib/gcc/arm-none-eabi/7.2.1/thumb/v7-m/libgcc.a(_udivmoddi4.o)
 .data          0x0000000000000000        0x0 /home/zhouhua/gcc-arm-none-eabi-7-2017-q4-major/bin/../lib/gcc/arm-none-eabi/7.2.1/thumb/v7-m/libgcc.a(_dvmd_tls.o)
 .bss           0x0000000000000000        0x0 /home/zhouhua/gcc-arm-none-eabi-7-2017-q4-major/bin/../lib/gcc/arm-none-eabi/7.2.1/thumb/v7-m/libgcc.a(_dvmd_tls.o)
 .text          0x0000000000000000        0x0 src/lib/perf/libperf.a(perf_counter.c.obj)
 .data          0x0000000000000000        0x0 src/lib/perf/libperf.a(perf_counter.c.obj)
 .bss           0x0000000000000000        0x0 src/lib/perf/libperf.a(perf_counter.c.obj)
 .text.perf_alloc
                0x0000000000000000       0x50 src/lib/perf/libperf.a(perf_counter.c.obj)
 .text.perf_alloc_once
                0x0000000000000000       0x54 src/lib/perf/libperf.a(perf_counter.c.obj)
 .text.perf_free
                0x0000000000000000       0x30 src/lib/perf/libperf.a(perf_counter.c.obj)
 .text.perf_set_elapsed
                0x0000000000000000       0xa4 src/lib/perf/libperf.a(perf_counter.c.obj)
 .text.perf_set_count
                0x0000000000000000        0xc src/lib/perf/libperf.a(perf_counter.c.obj)
 .text.perf_cancel
                0x0000000000000000       0x12 src/lib/perf/libperf.a(perf_counter.c.obj)
 .text.perf_reset
                0x0000000000000000       0x4e src/lib/perf/libperf.a(perf_counter.c.obj)
 .text.perf_print_counter_fd
                0x0000000000000000      0x144 src/lib/perf/libperf.a(perf_counter.c.obj)
 .text.perf_print_counter
                0x0000000000000000        0xc src/lib/perf/libperf.a(perf_counter.c.obj)
 .text.perf_print_counter_buffer
                0x0000000000000000      0x164 src/lib/perf/libperf.a(perf_counter.c.obj)
 .text.perf_event_count
                0x0000000000000000       0x1a src/lib/perf/libperf.a(perf_counter.c.obj)
 .text.perf_iterate_all
                0x0000000000000000       0x30 src/lib/perf/libperf.a(perf_counter.c.obj)
 .text.perf_print_all
                0x0000000000000000       0x30 src/lib/perf/libperf.a(perf_counter.c.obj)
 .text.perf_print_latency
                0x0000000000000000       0x5c src/lib/perf/libperf.a(perf_counter.c.obj)
 .text.perf_reset_all
                0x0000000000000000       0x44 src/lib/perf/libperf.a(perf_counter.c.obj)
 .bss.perf_counters
                0x0000000000000000        0x8 src/lib/perf/libperf.a(perf_counter.c.obj)
 .data.perf_counters_mutex
                0x0000000000000000        0xc src/lib/perf/libperf.a(perf_counter.c.obj)
 .rodata.perf_print_counter_buffer.str1.1
                0x0000000000000000       0x9e src/lib/perf/libperf.a(perf_counter.c.obj)
 .rodata.perf_print_counter_fd.str1.1
                0x0000000000000000       0xa1 src/lib/perf/libperf.a(perf_counter.c.obj)
 .rodata.perf_print_latency.str1.1
                0x0000000000000000       0x34 src/lib/perf/libperf.a(perf_counter.c.obj)

Memory Configuration

Name             Origin             Length             Attributes
flash            0x0000000008001000 0x000000000000f000 xr
sram             0x0000000020000000 0x0000000000002000 xrw
*default*        0x0000000000000000 0xffffffffffffffff

Linker script and memory map

LOAD platforms/nuttx/CMakeFiles/nuttx_px4io-v2_default.elf.dir/__/__/src/platforms/empty.c.obj

.text           0x0000000008001000     0xd9ec
                0x0000000008001000                _stext = ABSOLUTE (.)
 *(.vectors)
 .vectors       0x0000000008001000      0x134 NuttX/nuttx/arch/arm/src/libarch.a(up_vectors.o)
                0x0000000008001000                _vectors
 *(.text .text.*)
 .text.go_os_start
                0x0000000008001134       0x24 NuttX/nuttx/arch/arm/src/libarch.a(stm32_start.o)
 .text.__start  0x0000000008001158       0x58 NuttX/nuttx/arch/arm/src/libarch.a(stm32_start.o)
                0x0000000008001158                __start
 .text.stm32_clockconfig
                0x00000000080011b0       0xe4 NuttX/nuttx/arch/arm/src/libarch.a(stm32_rcc.o)
                0x00000000080011b0                stm32_clockconfig
 .text.stm32_gpioinit
                0x0000000008001294       0x10 NuttX/nuttx/arch/arm/src/libarch.a(stm32_gpio.o)
                0x0000000008001294                stm32_gpioinit
 .text.stm32_configgpio
                0x00000000080012a4       0xcc NuttX/nuttx/arch/arm/src/libarch.a(stm32_gpio.o)
                0x00000000080012a4                stm32_configgpio
 .text.stm32_unconfiggpio
                0x0000000008001370        0xc NuttX/nuttx/arch/arm/src/libarch.a(stm32_gpio.o)
                0x0000000008001370                stm32_unconfiggpio
 .text.stm32_gpiowrite
                0x000000000800137c       0x2c NuttX/nuttx/arch/arm/src/libarch.a(stm32_gpio.o)
                0x000000000800137c                stm32_gpiowrite
 .text.stm32_gpioread
                0x00000000080013a8       0x2c NuttX/nuttx/arch/arm/src/libarch.a(stm32_gpio.o)
                0x00000000080013a8                stm32_gpioread
 .text.up_lowputc
                0x00000000080013d4       0x18 NuttX/nuttx/arch/arm/src/libarch.a(stm32_lowputc.o)
                0x00000000080013d4                up_lowputc
 .text.stm32_lowsetup
                0x00000000080013ec       0x6c NuttX/nuttx/arch/arm/src/libarch.a(stm32_lowputc.o)
                0x00000000080013ec                stm32_lowsetup
 .text.up_setusartint
                0x0000000008001458       0x26 NuttX/nuttx/arch/arm/src/libarch.a(stm32_serial.o)
 .text.up_restoreusartint
                0x000000000800147e       0x18 NuttX/nuttx/arch/arm/src/libarch.a(stm32_serial.o)
 .text.up_disableusartint
                0x0000000008001496       0x2e NuttX/nuttx/arch/arm/src/libarch.a(stm32_serial.o)
 .text.up_set_format
                0x00000000080014c4       0x76 NuttX/nuttx/arch/arm/src/libarch.a(stm32_serial.o)
 .text.up_receive
                0x000000000800153a       0x16 NuttX/nuttx/arch/arm/src/libarch.a(stm32_serial.o)
 .text.up_rxint
                0x0000000008001550       0x2c NuttX/nuttx/arch/arm/src/libarch.a(stm32_serial.o)
 .text.up_rxavailable
                0x000000000800157c        0xc NuttX/nuttx/arch/arm/src/libarch.a(stm32_serial.o)
 .text.up_dma_rxint
                0x0000000008001588        0x8 NuttX/nuttx/arch/arm/src/libarch.a(stm32_serial.o)
 .text.up_send  0x0000000008001590        0x8 NuttX/nuttx/arch/arm/src/libarch.a(stm32_serial.o)
 .text.up_txready
                0x0000000008001598        0xc NuttX/nuttx/arch/arm/src/libarch.a(stm32_serial.o)
 .text.up_txint
                0x00000000080015a4       0x34 NuttX/nuttx/arch/arm/src/libarch.a(stm32_serial.o)
 .text.up_dma_receive
                0x00000000080015d8       0x28 NuttX/nuttx/arch/arm/src/libarch.a(stm32_serial.o)
 .text.up_ioctl
                0x0000000008001600       0xd4 NuttX/nuttx/arch/arm/src/libarch.a(stm32_serial.o)
 .text.up_detach
                0x00000000080016d4       0x1c NuttX/nuttx/arch/arm/src/libarch.a(stm32_serial.o)
 .text.up_attach
                0x00000000080016f0       0x20 NuttX/nuttx/arch/arm/src/libarch.a(stm32_serial.o)
 .text.up_interrupt.isra.0
                0x0000000008001710       0x4e NuttX/nuttx/arch/arm/src/libarch.a(stm32_serial.o)
 *fill*         0x000000000800175e        0x2 
 .text.up_interrupt_usart1
                0x0000000008001760        0xc NuttX/nuttx/arch/arm/src/libarch.a(stm32_serial.o)
 .text.up_interrupt_usart3
                0x000000000800176c        0xc NuttX/nuttx/arch/arm/src/libarch.a(stm32_serial.o)
 .text.up_interrupt_usart2
                0x0000000008001778        0xc NuttX/nuttx/arch/arm/src/libarch.a(stm32_serial.o)
 .text.up_dma_rxavailable
                0x0000000008001784       0x18 NuttX/nuttx/arch/arm/src/libarch.a(stm32_serial.o)
 .text.up_dma_rxcallback
                0x000000000800179c       0x1e NuttX/nuttx/arch/arm/src/libarch.a(stm32_serial.o)
 *fill*         0x00000000080017ba        0x2 
 .text.up_shutdown
                0x00000000080017bc       0x70 NuttX/nuttx/arch/arm/src/libarch.a(stm32_serial.o)
 .text.up_dma_shutdown
                0x000000000800182c       0x1a NuttX/nuttx/arch/arm/src/libarch.a(stm32_serial.o)
 *fill*         0x0000000008001846        0x2 
 .text.up_setup
                0x0000000008001848       0x98 NuttX/nuttx/arch/arm/src/libarch.a(stm32_serial.o)
 .text.up_dma_setup
                0x00000000080018e0       0x50 NuttX/nuttx/arch/arm/src/libarch.a(stm32_serial.o)
 .text.up_earlyserialinit
                0x0000000008001930       0x34 NuttX/nuttx/arch/arm/src/libarch.a(stm32_serial.o)
                0x0000000008001930                up_earlyserialinit
 .text.up_serialinit
                0x0000000008001964       0x60 NuttX/nuttx/arch/arm/src/libarch.a(stm32_serial.o)
                0x0000000008001964                up_serialinit
 .text.stm32_serial_dma_poll
                0x00000000080019c4       0x34 NuttX/nuttx/arch/arm/src/libarch.a(stm32_serial.o)
                0x00000000080019c4                stm32_serial_dma_poll
 .text.up_putc  0x00000000080019f8       0x34 NuttX/nuttx/arch/arm/src/libarch.a(stm32_serial.o)
                0x00000000080019f8                up_putc
 .text.modifyreg32
                0x0000000008001a2c       0x1e NuttX/nuttx/arch/arm/src/libarch.a(up_modifyreg32.o)
                0x0000000008001a2c                modifyreg32
 .text          0x0000000008001a4a       0x62 NuttX/nuttx/arch/arm/src/libarch.a(up_exception.o)
                0x0000000008001a4a                exception_common
 .text.stm32_irqinfo
                0x0000000008001aac       0x68 NuttX/nuttx/arch/arm/src/libarch.a(stm32_irq.o)
 .text.up_irqinitialize
                0x0000000008001b14       0x8c NuttX/nuttx/arch/arm/src/libarch.a(stm32_irq.o)
                0x0000000008001b14                up_irqinitialize
 .text.up_disable_irq
                0x0000000008001ba0       0x24 NuttX/nuttx/arch/arm/src/libarch.a(stm32_irq.o)
                0x0000000008001ba0                up_disable_irq
 .text.up_enable_irq
                0x0000000008001bc4       0x24 NuttX/nuttx/arch/arm/src/libarch.a(stm32_irq.o)
                0x0000000008001bc4                up_enable_irq
 .text.up_ack_irq
                0x0000000008001be8        0x2 NuttX/nuttx/arch/arm/src/libarch.a(stm32_irq.o)
                0x0000000008001be8                up_ack_irq
 .text.stm32_dmachandisable
                0x0000000008001bea       0x20 NuttX/nuttx/arch/arm/src/libarch.a(stm32_dma.o)
 *fill*         0x0000000008001c0a        0x2 
 .text.stm32_dmainterrupt
                0x0000000008001c0c       0x50 NuttX/nuttx/arch/arm/src/libarch.a(stm32_dma.o)
 .text.up_dmainitialize
                0x0000000008001c5c       0x40 NuttX/nuttx/arch/arm/src/libarch.a(stm32_dma.o)
                0x0000000008001c5c                up_dmainitialize
 .text.stm32_dmachannel
                0x0000000008001c9c       0x34 NuttX/nuttx/arch/arm/src/libarch.a(stm32_dma.o)
                0x0000000008001c9c                stm32_dmachannel
 .text.stm32_dmafree
                0x0000000008001cd0        0x6 NuttX/nuttx/arch/arm/src/libarch.a(stm32_dma.o)
                0x0000000008001cd0                stm32_dmafree
 .text.stm32_dmasetup
                0x0000000008001cd6       0x34 NuttX/nuttx/arch/arm/src/libarch.a(stm32_dma.o)
                0x0000000008001cd6                stm32_dmasetup
 .text.stm32_dmastart
                0x0000000008001d0a       0x28 NuttX/nuttx/arch/arm/src/libarch.a(stm32_dma.o)
                0x0000000008001d0a                stm32_dmastart
 .text.stm32_dmastop
                0x0000000008001d32        0x4 NuttX/nuttx/arch/arm/src/libarch.a(stm32_dma.o)
                0x0000000008001d32                stm32_dmastop
 .text.stm32_dmaresidual
                0x0000000008001d36        0x6 NuttX/nuttx/arch/arm/src/libarch.a(stm32_dma.o)
                0x0000000008001d36                stm32_dmaresidual
 .text.up_taskdump
                0x0000000008001d3c       0x30 NuttX/nuttx/arch/arm/src/libarch.a(up_assert.o)
 .text.up_assert
                0x0000000008001d6c      0x1c0 NuttX/nuttx/arch/arm/src/libarch.a(up_assert.o)
                0x0000000008001d6c                up_assert
 .text.up_doirq
                0x0000000008001f2c       0x24 NuttX/nuttx/arch/arm/src/libarch.a(up_doirq.o)
                0x0000000008001f2c                up_doirq
 .text.up_hardfault
                0x0000000008001f50       0x34 NuttX/nuttx/arch/arm/src/libarch.a(up_hardfault.o)
                0x0000000008001f50                up_hardfault
 .text.up_svcall
                0x0000000008001f84       0x38 NuttX/nuttx/arch/arm/src/libarch.a(up_svcall.o)
                0x0000000008001f84                up_svcall
 .text.up_check_tcbstack
                0x0000000008001fbc       0x30 NuttX/nuttx/arch/arm/src/libarch.a(up_checkstack.o)
                0x0000000008001fbc                up_check_tcbstack
 *fill*         0x0000000008001fec        0x4 
 .text          0x0000000008001ff0      0x230 NuttX/nuttx/libc/libc.a(arch_memcpy.o)
                0x0000000008002010                memcpy
 .text.sem_init
                0x0000000008002220       0x20 NuttX/nuttx/libc/libc.a(sem_init.o)
                0x0000000008002220                sem_init
 .text.abort    0x0000000008002240        0x8 NuttX/nuttx/libc/libc.a(lib_abort.o)
                0x0000000008002240                abort
 .text.strcpy   0x0000000008002248       0x10 NuttX/nuttx/libc/libc.a(lib_strcpy.o)
                0x0000000008002248                strcpy
 .text.vsyslog  0x0000000008002258       0x24 NuttX/nuttx/libc/libc.a(lib_syslog.o)
                0x0000000008002258                vsyslog
 .text.syslog   0x000000000800227c       0x1a NuttX/nuttx/libc/libc.a(lib_syslog.o)
                0x000000000800227c                syslog
 .text.cfgetspeed
                0x0000000008002296        0x4 NuttX/nuttx/libc/libc.a(lib_cfgetspeed.o)
                0x0000000008002296                cfgetspeed
 .text.cfsetspeed
                0x000000000800229a        0x6 NuttX/nuttx/libc/libc.a(lib_cfsetspeed.o)
                0x000000000800229a                cfsetspeed
 .text.uart_takesem
                0x00000000080022a0       0x30 NuttX/nuttx/drivers/libdrivers.a(serial.o)
 .text.uart_tcdrain
                0x00000000080022d0       0x88 NuttX/nuttx/drivers/libdrivers.a(serial.o)
 .text.uart_ioctl
                0x0000000008002358      0x14c NuttX/nuttx/drivers/libdrivers.a(serial.o)
 .text.uart_putxmitchar
                0x00000000080024a4       0x94 NuttX/nuttx/drivers/libdrivers.a(serial.o)
 .text.uart_read
                0x0000000008002538       0xee NuttX/nuttx/drivers/libdrivers.a(serial.o)
 .text.uart_open
                0x0000000008002626       0x92 NuttX/nuttx/drivers/libdrivers.a(serial.o)
 .text.uart_close
                0x00000000080026b8       0x8e NuttX/nuttx/drivers/libdrivers.a(serial.o)
 .text.uart_write
                0x0000000008002746       0xf6 NuttX/nuttx/drivers/libdrivers.a(serial.o)
 .text.uart_register
                0x000000000800283c       0x70 NuttX/nuttx/drivers/libdrivers.a(serial.o)
                0x000000000800283c                uart_register
 .text.uart_datareceived
                0x00000000080028ac       0x12 NuttX/nuttx/drivers/libdrivers.a(serial.o)
                0x00000000080028ac                uart_datareceived
 .text.uart_datasent
                0x00000000080028be       0x12 NuttX/nuttx/drivers/libdrivers.a(serial.o)
                0x00000000080028be                uart_datasent
 .text.uart_xmitchars
                0x00000000080028d0       0x70 NuttX/nuttx/drivers/libdrivers.a(serial_io.o)
                0x00000000080028d0                uart_xmitchars
 .text.uart_recvchars
                0x0000000008002940       0x66 NuttX/nuttx/drivers/libdrivers.a(serial_io.o)
                0x0000000008002940                uart_recvchars
 .text._vsyslog
                0x00000000080029a6       0x26 NuttX/nuttx/drivers/libdrivers.a(vsyslog.o)
                0x00000000080029a6                _vsyslog
 .text.syslogstream_putc
                0x00000000080029cc       0x28 NuttX/nuttx/drivers/libdrivers.a(syslog_stream.o)
 .text.syslogstream_create
                0x00000000080029f4       0x18 NuttX/nuttx/drivers/libdrivers.a(syslog_stream.o)
                0x00000000080029f4                syslogstream_create
 .text.emergstream_putc
                0x0000000008002a0c       0x24 NuttX/nuttx/drivers/libdrivers.a(syslog_emergstream.o)
 .text.emergstream
                0x0000000008002a30       0x18 NuttX/nuttx/drivers/libdrivers.a(syslog_emergstream.o)
                0x0000000008002a30                emergstream
 .text.syslog_putc
                0x0000000008002a48       0x2c NuttX/nuttx/drivers/libdrivers.a(syslog_putc.o)
                0x0000000008002a48                syslog_putc
 .text.syslog_force
                0x0000000008002a74        0xc NuttX/nuttx/drivers/libdrivers.a(syslog_force.o)
                0x0000000008002a74                syslog_force
 .text.syslog_default_flush
                0x0000000008002a80        0x4 NuttX/nuttx/drivers/libdrivers.a(syslog_channel.o)
 .text.syslog_channel
                0x0000000008002a84       0x14 NuttX/nuttx/drivers/libdrivers.a(syslog_channel.o)
                0x0000000008002a84                syslog_channel
 .text.register_driver
                0x0000000008002a98       0x32 NuttX/nuttx/fs/libfs.a(fs_registerdriver.o)
                0x0000000008002a98                register_driver
 *fill*         0x0000000008002aca        0x2 
 .text.inode_initialize
                0x0000000008002acc       0x2c NuttX/nuttx/fs/libfs.a(fs_inode.o)
                0x0000000008002acc                inode_initialize
 .text.inode_semtake
                0x0000000008002af8       0x48 NuttX/nuttx/fs/libfs.a(fs_inode.o)
                0x0000000008002af8                inode_semtake
 .text.inode_semgive
                0x0000000008002b40       0x24 NuttX/nuttx/fs/libfs.a(fs_inode.o)
                0x0000000008002b40                inode_semgive
 .text.inode_alloc
                0x0000000008002b64       0x3c NuttX/nuttx/fs/libfs.a(fs_inodereserve.o)
 .text.inode_reserve
                0x0000000008002ba0       0xb0 NuttX/nuttx/fs/libfs.a(fs_inodereserve.o)
                0x0000000008002ba0                inode_reserve
 .text.inode_nextname
                0x0000000008002c50       0x20 NuttX/nuttx/fs/libfs.a(fs_inodesearch.o)
                0x0000000008002c50                inode_nextname
 .text.inode_search
                0x0000000008002c70       0xa4 NuttX/nuttx/fs/libfs.a(fs_inodesearch.o)
                0x0000000008002c70                inode_search
 .text.zalloc   0x0000000008002d14        0xc NuttX/nuttx/mm/libmm.a(umm_zalloc.o)
                0x0000000008002d14                zalloc
 .text.mm_zalloc
                0x0000000008002d20       0x18 NuttX/nuttx/mm/libmm.a(mm_zalloc.o)
                0x0000000008002d20                mm_zalloc
 .text.mm_malloc
                0x0000000008002d38       0x8a NuttX/nuttx/mm/libmm.a(mm_malloc.o)
                0x0000000008002d38                mm_malloc
 .text.mm_seminitialize
                0x0000000008002dc2       0x18 NuttX/nuttx/mm/libmm.a(mm_sem.o)
                0x0000000008002dc2                mm_seminitialize
 .text.mm_trysemaphore
                0x0000000008002dda       0x32 NuttX/nuttx/mm/libmm.a(mm_sem.o)
                0x0000000008002dda                mm_trysemaphore
 .text.mm_takesemaphore
                0x0000000008002e0c       0x40 NuttX/nuttx/mm/libmm.a(mm_sem.o)
                0x0000000008002e0c                mm_takesemaphore
 .text.mm_givesemaphore
                0x0000000008002e4c       0x2c NuttX/nuttx/mm/libmm.a(mm_sem.o)
                0x0000000008002e4c                mm_givesemaphore
 .text.mm_addfreechunk
                0x0000000008002e78       0x38 NuttX/nuttx/mm/libmm.a(mm_addfreechunk.o)
                0x0000000008002e78                mm_addfreechunk
 .text.mm_size2ndx
                0x0000000008002eb0       0x1a NuttX/nuttx/mm/libmm.a(mm_size2ndx.o)
                0x0000000008002eb0                mm_size2ndx
 *fill*         0x0000000008002eca        0x2 
 .text.get_errno_ptr
                0x0000000008002ecc       0x24 NuttX/nuttx/sched/libsched.a(errno_getptr.o)
                0x0000000008002ecc                get_errno_ptr
 .text.os_start
                0x0000000008002ef0      0x14c NuttX/nuttx/sched/libsched.a(os_start.o)
                0x0000000008002ef0                os_start
 .text.os_bringup
                0x000000000800303c       0x34 NuttX/nuttx/sched/libsched.a(os_bringup.o)
                0x000000000800303c                os_bringup
 .text.irq_attach
                0x0000000008003070       0x4c NuttX/nuttx/sched/libsched.a(irq_attach.o)
                0x0000000008003070                irq_attach
 .text.irq_dispatch
                0x00000000080030bc       0x18 NuttX/nuttx/sched/libsched.a(irq_dispatch.o)
                0x00000000080030bc                irq_dispatch
 .text.irq_unexpected_isr
                0x00000000080030d4       0x18 NuttX/nuttx/sched/libsched.a(irq_unexpectedisr.o)
                0x00000000080030d4                irq_unexpected_isr
 .text.sched_garbage_collection
                0x00000000080030ec       0x30 NuttX/nuttx/sched/libsched.a(sched_garbage.o)
                0x00000000080030ec                sched_garbage_collection
 .text.sched_have_garbage
                0x000000000800311c       0x10 NuttX/nuttx/sched/libsched.a(sched_garbage.o)
                0x000000000800311c                sched_have_garbage
 .text.sched_foreach
                0x000000000800312c       0x2c NuttX/nuttx/sched/libsched.a(sched_foreach.o)
                0x000000000800312c                sched_foreach
 .text.sched_idletask
                0x0000000008003158       0x18 NuttX/nuttx/sched/libsched.a(sched_idletask.o)
                0x0000000008003158                sched_idletask
 .text.sem_wait
                0x0000000008003170       0x88 NuttX/nuttx/sched/libsched.a(sem_wait.o)
                0x0000000008003170                sem_wait
 .text.sem_trywait
                0x00000000080031f8       0x50 NuttX/nuttx/sched/libsched.a(sem_trywait.o)
                0x00000000080031f8                sem_trywait
 .text.sem_post
                0x0000000008003248       0x68 NuttX/nuttx/sched/libsched.a(sem_post.o)
                0x0000000008003248                sem_post
 .text.sem_reset
                0x00000000080032b0       0x42 NuttX/nuttx/sched/libsched.a(sem_reset.o)
                0x00000000080032b0                sem_reset
 *fill*         0x00000000080032f2        0x2 
 .text.thread_create
                0x00000000080032f4       0xa8 NuttX/nuttx/sched/libsched.a(task_create.o)
 .text.task_create
                0x000000000800339c       0x16 NuttX/nuttx/sched/libsched.a(task_create.o)
                0x000000000800339c                task_create
 *fill*         0x00000000080033b2        0x2 
 .text.task_schedsetup
                0x00000000080033b4       0xb4 NuttX/nuttx/sched/libsched.a(task_setup.o)
                0x00000000080033b4                task_schedsetup
 .text.task_argsetup
                0x0000000008003468       0xd0 NuttX/nuttx/sched/libsched.a(task_setup.o)
                0x0000000008003468                task_argsetup
 .text.task_activate
                0x0000000008003538       0x1a NuttX/nuttx/sched/libsched.a(task_activate.o)
                0x0000000008003538                task_activate
 *fill*         0x0000000008003552        0x2 
 .text.task_start
                0x0000000008003554       0x2c NuttX/nuttx/sched/libsched.a(task_start.o)
                0x0000000008003554                task_start
 .text.getpid   0x0000000008003580       0x10 NuttX/nuttx/sched/libsched.a(task_getpid.o)
                0x0000000008003580                getpid
 .text.exit     0x0000000008003590       0x1c NuttX/nuttx/sched/libsched.a(exit.o)
                0x0000000008003590                exit
 .text.group_allocate
                0x00000000080035ac       0x18 NuttX/nuttx/sched/libsched.a(group_create.o)
                0x00000000080035ac                group_allocate
 .text.group_initialize
                0x00000000080035c4        0xa NuttX/nuttx/sched/libsched.a(group_create.o)
                0x00000000080035c4                group_initialize
 *fill*         0x00000000080035ce        0x2 
 .text.group_setupidlefiles
                0x00000000080035d0       0x38 NuttX/nuttx/sched/libsched.a(group_setupidlefiles.o)
                0x00000000080035d0                group_setupidlefiles
 .text.group_setuptaskfiles
                0x0000000008003608        0xe NuttX/nuttx/sched/libsched.a(group_setuptaskfiles.o)
                0x0000000008003608                group_setuptaskfiles
 *fill*         0x0000000008003616        0x2 
 .text.irq_initialize
                0x0000000008003618       0x1c NuttX/nuttx/sched/libsched.a(irq_initialize.o)
                0x0000000008003618                irq_initialize
 .text.sched_releasetcb
                0x0000000008003634       0x40 NuttX/nuttx/sched/libsched.a(sched_releasetcb.o)
                0x0000000008003634                sched_releasetcb
 .text.sched_lock
                0x0000000008003674       0x1c NuttX/nuttx/sched/libsched.a(sched_lock.o)
                0x0000000008003674                sched_lock
 .text.sched_unlock
                0x0000000008003690       0x50 NuttX/nuttx/sched/libsched.a(sched_unlock.o)
                0x0000000008003690                sched_unlock
 .text.task_exithook
                0x00000000080036e0       0x1e NuttX/nuttx/sched/libsched.a(task_exithook.o)
                0x00000000080036e0                task_exithook
 .text.task_recover
                0x00000000080036fe       0x12 NuttX/nuttx/sched/libsched.a(task_recover.o)
                0x00000000080036fe                task_recover
 .text.wd_recover
                0x0000000008003710       0x28 NuttX/nuttx/sched/libsched.a(wd_recover.o)
                0x0000000008003710                wd_recover
 .text.group_leave
                0x0000000008003738       0x26 NuttX/nuttx/sched/libsched.a(group_leave.o)
                0x0000000008003738                group_leave
 *fill*         0x000000000800375e        0x2 
 .text.sched_ufree
                0x0000000008003760       0x40 NuttX/nuttx/sched/libsched.a(sched_free.o)
                0x0000000008003760                sched_ufree
 .text.sem_recover
                0x00000000080037a0       0x26 NuttX/nuttx/sched/libsched.a(sem_recover.o)
                0x00000000080037a0                sem_recover
 *fill*         0x00000000080037c6        0x2 
 .text.wd_cancel
                0x00000000080037c8       0x70 NuttX/nuttx/sched/libsched.a(wd_cancel.o)
                0x00000000080037c8                wd_cancel
 .text.wd_delete
                0x0000000008003838       0x54 NuttX/nuttx/sched/libsched.a(wd_delete.o)
                0x0000000008003838                wd_delete
 .text.wd_initialize
                0x000000000800388c       0x38 NuttX/nuttx/sched/libsched.a(wd_initialize.o)
                0x000000000800388c                wd_initialize
 .text.up_allocate_heap
                0x00000000080038c4       0x14 NuttX/nuttx/arch/arm/src/libarch.a(stm32_allocateheap.o)
                0x00000000080038c4                up_allocate_heap
 .text.up_idle  0x00000000080038d8        0x2 NuttX/nuttx/arch/arm/src/libarch.a(stm32_idle.o)
                0x00000000080038d8                up_idle
 *fill*         0x00000000080038da        0x2 
 .text.up_block_task
                0x00000000080038dc       0x70 NuttX/nuttx/arch/arm/src/libarch.a(up_blocktask.o)
                0x00000000080038dc                up_block_task
 .text.up_copyfullstate
                0x000000000800394c       0x18 NuttX/nuttx/arch/arm/src/libarch.a(up_copyfullstate.o)
                0x000000000800394c                up_copyfullstate
 .text.up_stack_color
                0x0000000008003964       0x28 NuttX/nuttx/arch/arm/src/libarch.a(up_createstack.o)
                0x0000000008003964                up_stack_color
 .text.up_create_stack
                0x000000000800398c       0x46 NuttX/nuttx/arch/arm/src/libarch.a(up_createstack.o)
                0x000000000800398c                up_create_stack
 .text.up_mdelay
                0x00000000080039d2       0x2a NuttX/nuttx/arch/arm/src/libarch.a(up_mdelay.o)
                0x00000000080039d2                up_mdelay
 .text._exit    0x00000000080039fc       0x20 NuttX/nuttx/arch/arm/src/libarch.a(up_exit.o)
                0x00000000080039fc                _exit
 .text.up_initialize
                0x0000000008003a1c       0x30 NuttX/nuttx/arch/arm/src/libarch.a(up_initialize.o)
                0x0000000008003a1c                up_initialize
 .text.up_initial_state
                0x0000000008003a4c       0x2e NuttX/nuttx/arch/arm/src/libarch.a(up_initialstate.o)
                0x0000000008003a4c                up_initial_state
 *fill*         0x0000000008003a7a        0x2 
 .text.up_interrupt_context
                0x0000000008003a7c       0x10 NuttX/nuttx/arch/arm/src/libarch.a(up_interruptcontext.o)
                0x0000000008003a7c                up_interrupt_context
 .text.up_release_pending
                0x0000000008003a8c       0x38 NuttX/nuttx/arch/arm/src/libarch.a(up_releasepending.o)
                0x0000000008003a8c                up_release_pending
 .text.up_release_stack
                0x0000000008003ac4       0x16 NuttX/nuttx/arch/arm/src/libarch.a(up_releasestack.o)
                0x0000000008003ac4                up_release_stack
 .text.up_stack_frame
                0x0000000008003ada       0x26 NuttX/nuttx/arch/arm/src/libarch.a(up_stackframe.o)
                0x0000000008003ada                up_stack_frame
 .text.up_unblock_task
                0x0000000008003b00       0x54 NuttX/nuttx/arch/arm/src/libarch.a(up_unblocktask.o)
                0x0000000008003b00                up_unblock_task
 .text          0x0000000008003b54        0xa NuttX/nuttx/arch/arm/src/libarch.a(up_fullcontextrestore.o)
                0x0000000008003b54                up_fullcontextrestore
 .text          0x0000000008003b5e        0xc NuttX/nuttx/arch/arm/src/libarch.a(up_switchcontext.o)
                0x0000000008003b5e                up_switchcontext
 .text.stm32_timerisr
                0x0000000008003b6a        0xa NuttX/nuttx/arch/arm/src/libarch.a(stm32_timerisr.o)
 .text.arm_timer_initialize
                0x0000000008003b74       0x44 NuttX/nuttx/arch/arm/src/libarch.a(stm32_timerisr.o)
                0x0000000008003b74                arm_timer_initialize
 .text.sq_addlast
                0x0000000008003bb8       0x14 NuttX/nuttx/libc/libc.a(sq_addlast.o)
                0x0000000008003bb8                sq_addlast
 .text.sq_remfirst
                0x0000000008003bcc       0x14 NuttX/nuttx/libc/libc.a(sq_remfirst.o)
                0x0000000008003bcc                sq_remfirst
 .text.sq_remafter
                0x0000000008003be0       0x20 NuttX/nuttx/libc/libc.a(sq_remafter.o)
                0x0000000008003be0                sq_remafter
 .text.dq_addfirst
                0x0000000008003c00       0x18 NuttX/nuttx/libc/libc.a(dq_addfirst.o)
                0x0000000008003c00                dq_addfirst
 .text.dq_rem   0x0000000008003c18       0x1c NuttX/nuttx/libc/libc.a(dq_rem.o)
                0x0000000008003c18                dq_rem
 .text.sem_setprotocol
                0x0000000008003c34       0x1e NuttX/nuttx/libc/libc.a(sem_setprotocol.o)
                0x0000000008003c34                sem_setprotocol
 .text.utodec   0x0000000008003c52       0x24 NuttX/nuttx/libc/libc.a(lib_libvsprintf.o)
 .text.utohex   0x0000000008003c76       0x4a NuttX/nuttx/libc/libc.a(lib_libvsprintf.o)
 .text.utooct   0x0000000008003cc0       0x1e NuttX/nuttx/libc/libc.a(lib_libvsprintf.o)
 .text.utobin   0x0000000008003cde       0x1e NuttX/nuttx/libc/libc.a(lib_libvsprintf.o)
 .text.utoascii
                0x0000000008003cfc       0x82 NuttX/nuttx/libc/libc.a(lib_libvsprintf.o)
 .text.prejustify
                0x0000000008003d7e       0x92 NuttX/nuttx/libc/libc.a(lib_libvsprintf.o)
 .text.lib_vsprintf
                0x0000000008003e10      0x290 NuttX/nuttx/libc/libc.a(lib_libvsprintf.o)
                0x0000000008003e10                lib_vsprintf
 .text.nulloutstream_putc
                0x00000000080040a0        0x8 NuttX/nuttx/libc/libc.a(lib_nulloutstream.o)
 .text.lib_nulloutstream
                0x00000000080040a8       0x18 NuttX/nuttx/libc/libc.a(lib_nulloutstream.o)
                0x00000000080040a8                lib_nulloutstream
 .text.lib_noflush
                0x00000000080040c0        0x4 NuttX/nuttx/libc/libc.a(lib_libnoflush.o)
                0x00000000080040c0                lib_noflush
 .text.memset   0x00000000080040c4       0x10 NuttX/nuttx/libc/libc.a(lib_memset.o)
                0x00000000080040c4                memset
 .text.strchr   0x00000000080040d4       0x16 NuttX/nuttx/libc/libc.a(lib_strchr.o)
                0x00000000080040d4                strchr
 .text.strlen   0x00000000080040ea       0x10 NuttX/nuttx/libc/libc.a(lib_strlen.o)
                0x00000000080040ea                strlen
 .text.strnlen  0x00000000080040fa       0x18 NuttX/nuttx/libc/libc.a(lib_strnlen.o)
                0x00000000080040fa                strnlen
 .text.strncpy  0x0000000008004112       0x24 NuttX/nuttx/libc/libc.a(lib_strncpy.o)
                0x0000000008004112                strncpy
 .text.syslog_initialize
                0x0000000008004136        0xc NuttX/nuttx/drivers/libdrivers.a(syslog_initialize.o)
                0x0000000008004136                syslog_initialize
 *fill*         0x0000000008004142        0x2 
 .text.syslog_console_channel
                0x0000000008004144       0x28 NuttX/nuttx/drivers/libdrivers.a(syslog_consolechannel.o)
                0x0000000008004144                syslog_console_channel
 .text.syslog_dev_takesem
                0x000000000800416c       0x38 NuttX/nuttx/drivers/libdrivers.a(syslog_device.o)
 .text.syslog_dev_initialize
                0x00000000080041a4       0x7c NuttX/nuttx/drivers/libdrivers.a(syslog_device.o)
                0x00000000080041a4                syslog_dev_initialize
 .text.syslog_dev_outputready
                0x0000000008004220       0x60 NuttX/nuttx/drivers/libdrivers.a(syslog_device.o)
 .text.syslog_dev_putc
                0x0000000008004280       0x68 NuttX/nuttx/drivers/libdrivers.a(syslog_device.o)
                0x0000000008004280                syslog_dev_putc
 .text.syslog_dev_flush
                0x00000000080042e8        0x4 NuttX/nuttx/drivers/libdrivers.a(syslog_device.o)
                0x00000000080042e8                syslog_dev_flush
 .text.fs_initialize
                0x00000000080042ec        0x4 NuttX/nuttx/fs/libfs.a(fs_initialize.o)
                0x00000000080042ec                fs_initialize
 .text._files_close
                0x00000000080042f0       0x2a NuttX/nuttx/fs/libfs.a(fs_files.o)
 *fill*         0x000000000800431a        0x2 
 .text._files_semtake
                0x000000000800431c       0x24 NuttX/nuttx/fs/libfs.a(fs_files.o)
 .text.files_initialize
                0x0000000008004340        0x2 NuttX/nuttx/fs/libfs.a(fs_files.o)
                0x0000000008004340                files_initialize
 .text.files_initlist
                0x0000000008004342        0x8 NuttX/nuttx/fs/libfs.a(fs_files.o)
                0x0000000008004342                files_initlist
 .text.files_releaselist
                0x000000000800434a       0x20 NuttX/nuttx/fs/libfs.a(fs_files.o)
                0x000000000800434a                files_releaselist
 .text.file_dup2
                0x000000000800436a       0x84 NuttX/nuttx/fs/libfs.a(fs_files.o)
                0x000000000800436a                file_dup2
 .text.files_allocate
                0x00000000080043ee       0x4e NuttX/nuttx/fs/libfs.a(fs_files.o)
                0x00000000080043ee                files_allocate
 .text.files_close
                0x000000000800443c       0x34 NuttX/nuttx/fs/libfs.a(fs_files.o)
                0x000000000800443c                files_close
 .text.files_release
                0x0000000008004470       0x2a NuttX/nuttx/fs/libfs.a(fs_files.o)
                0x0000000008004470                files_release
 .text.inode_addref
                0x000000000800449a       0x1a NuttX/nuttx/fs/libfs.a(fs_inodeaddref.o)
                0x000000000800449a                inode_addref
 .text.inode_release
                0x00000000080044b4       0x3a NuttX/nuttx/fs/libfs.a(fs_inoderelease.o)
                0x00000000080044b4                inode_release
 .text.file_detach
                0x00000000080044ee       0x52 NuttX/nuttx/fs/libfs.a(fs_filedetach.o)
                0x00000000080044ee                file_detach
 .text.close    0x0000000008004540       0x24 NuttX/nuttx/fs/libfs.a(fs_close.o)
                0x0000000008004540                close
 .text.dup2     0x0000000008004564       0x3a NuttX/nuttx/fs/libfs.a(fs_dupfd2.o)
                0x0000000008004564                dup2
 .text.fs_getfilep
                0x000000000800459e       0x26 NuttX/nuttx/fs/libfs.a(fs_getfilep.o)
                0x000000000800459e                fs_getfilep
 .text.inode_checkflags
                0x00000000080045c4       0x28 NuttX/nuttx/fs/libfs.a(fs_open.o)
                0x00000000080045c4                inode_checkflags
 .text.open     0x00000000080045ec       0x8e NuttX/nuttx/fs/libfs.a(fs_open.o)
                0x00000000080045ec                open
 .text.file_write
                0x000000000800467a       0x2c NuttX/nuttx/fs/libfs.a(fs_write.o)
                0x000000000800467a                file_write
 .text.write    0x00000000080046a6       0x30 NuttX/nuttx/fs/libfs.a(fs_write.o)
                0x00000000080046a6                write
 .text.inode_find
                0x00000000080046d6       0x22 NuttX/nuttx/fs/libfs.a(fs_inodefind.o)
                0x00000000080046d6                inode_find
 .text.inode_free
                0x00000000080046f8       0x1e NuttX/nuttx/fs/libfs.a(fs_inodefree.o)
                0x00000000080046f8                inode_free
 *fill*         0x0000000008004716        0x2 
 .text.umm_initialize
                0x0000000008004718       0x10 NuttX/nuttx/mm/libmm.a(umm_initialize.o)
                0x0000000008004718                umm_initialize
 .text.umm_trysemaphore
                0x0000000008004728        0xc NuttX/nuttx/mm/libmm.a(umm_sem.o)
                0x0000000008004728                umm_trysemaphore
 .text.umm_givesemaphore
                0x0000000008004734        0xc NuttX/nuttx/mm/libmm.a(umm_sem.o)
                0x0000000008004734                umm_givesemaphore
 .text.free     0x0000000008004740        0xc NuttX/nuttx/mm/libmm.a(umm_free.o)
                0x0000000008004740                free
 .text.malloc   0x000000000800474c        0xc NuttX/nuttx/mm/libmm.a(umm_malloc.o)
                0x000000000800474c                malloc
 .text.mm_addregion
                0x0000000008004758       0x4e NuttX/nuttx/mm/libmm.a(mm_initialize.o)
                0x0000000008004758                mm_addregion
 .text.mm_initialize
                0x00000000080047a6       0x40 NuttX/nuttx/mm/libmm.a(mm_initialize.o)
                0x00000000080047a6                mm_initialize
 .text.mm_free  0x00000000080047e6       0x9c NuttX/nuttx/mm/libmm.a(mm_free.o)
                0x00000000080047e6                mm_free
 *fill*         0x0000000008004882        0x2 
 .text.sched_getfiles
                0x0000000008004884       0x10 NuttX/nuttx/sched/libsched.a(sched_getfiles.o)
                0x0000000008004884                sched_getfiles
 .text.sched_addreadytorun
                0x0000000008004894       0x48 NuttX/nuttx/sched/libsched.a(sched_addreadytorun.o)
                0x0000000008004894                sched_addreadytorun
 .text.sched_removereadytorun
                0x00000000080048dc       0x28 NuttX/nuttx/sched/libsched.a(sched_removereadytorun.o)
                0x00000000080048dc                sched_removereadytorun
 .text.sched_addprioritized
                0x0000000008004904       0x58 NuttX/nuttx/sched/libsched.a(sched_addprioritized.o)
                0x0000000008004904                sched_addprioritized
 .text.sched_mergepending
                0x000000000800495c       0x68 NuttX/nuttx/sched/libsched.a(sched_mergepending.o)
                0x000000000800495c                sched_mergepending
 .text.sched_addblocked
                0x00000000080049c4       0x28 NuttX/nuttx/sched/libsched.a(sched_addblocked.o)
                0x00000000080049c4                sched_addblocked
 .text.sched_removeblocked
                0x00000000080049ec       0x1c NuttX/nuttx/sched/libsched.a(sched_removeblocked.o)
                0x00000000080049ec                sched_removeblocked
 .text.sched_process_timer
                0x0000000008004a08       0x18 NuttX/nuttx/sched/libsched.a(sched_processtimer.o)
                0x0000000008004a08                sched_process_timer
 .text.sem_destroy
                0x0000000008004a20       0x20 NuttX/nuttx/sched/libsched.a(sem_destroy.o)
                0x0000000008004a20                sem_destroy
 .text.task_exit
                0x0000000008004a40       0x4c NuttX/nuttx/sched/libsched.a(task_exit.o)
                0x0000000008004a40                task_exit
 .text.task_terminate
                0x0000000008004a8c       0x54 NuttX/nuttx/sched/libsched.a(task_terminate.o)
                0x0000000008004a8c                task_terminate
 .text.wd_timer
                0x0000000008004ae0       0x68 NuttX/nuttx/sched/libsched.a(wd_start.o)
                0x0000000008004ae0                wd_timer
 .text.sched_gettcb
                0x0000000008004b48       0x24 NuttX/nuttx/sched/libsched.a(sched_gettcb.o)
                0x0000000008004b48                sched_gettcb
 .text.sq_addfirst
                0x0000000008004b6c        0xe NuttX/nuttx/libc/libc.a(sq_addfirst.o)
                0x0000000008004b6c                sq_addfirst
 .text.sq_addafter
                0x0000000008004b7a       0x1c NuttX/nuttx/libc/libc.a(sq_addafter.o)
                0x0000000008004b7a                sq_addafter
 .text.dq_addlast
                0x0000000008004b96       0x18 NuttX/nuttx/libc/libc.a(dq_addlast.o)
                0x0000000008004b96                dq_addlast
 .text.strdup   0x0000000008004bae       0x1c NuttX/nuttx/libc/libc.a(lib_strdup.o)
                0x0000000008004bae                strdup
 *fill*         0x0000000008004bca        0x2 
 .text.isr_debug
                0x0000000008004bcc       0x4c src/modules/px4iofirmware/libpx4iofirmware.a(px4io.c.obj)
                0x0000000008004bcc                isr_debug
 .text.schedule_reboot
                0x0000000008004c18       0x20 src/modules/px4iofirmware/libpx4iofirmware.a(px4io.c.obj)
                0x0000000008004c18                schedule_reboot
 .text.user_start
                0x0000000008004c38      0x40c src/modules/px4iofirmware/libpx4iofirmware.a(px4io.c.obj)
                0x0000000008004c38                user_start
 .text.pwm_configure_rates
                0x0000000008005044       0x74 src/modules/px4iofirmware/libpx4iofirmware.a(registers.c.obj)
 .text.registers_set
                0x00000000080050b8      0x560 src/modules/px4iofirmware/libpx4iofirmware.a(registers.c.obj)
                0x00000000080050b8                registers_set
 .text.registers_get
                0x0000000008005618      0x1a0 src/modules/px4iofirmware/libpx4iofirmware.a(registers.c.obj)
                0x0000000008005618                registers_get
 .text.safety_check_button
                0x00000000080057b8       0xfc src/modules/px4iofirmware/libpx4iofirmware.a(safety.c.obj)
 .text.failsafe_blink
                0x00000000080058b4       0x38 src/modules/px4iofirmware/libpx4iofirmware.a(safety.c.obj)
 .text.safety_init
                0x00000000080058ec       0x30 src/modules/px4iofirmware/libpx4iofirmware.a(safety.c.obj)
                0x00000000080058ec                safety_init
 .text.failsafe_led_init
                0x000000000800591c       0x30 src/modules/px4iofirmware/libpx4iofirmware.a(safety.c.obj)
                0x000000000800591c                failsafe_led_init
 .text.dma_reset
                0x000000000800594c       0x6c src/modules/px4iofirmware/libpx4iofirmware.a(serial.c.obj)
 .text.rx_dma_callback
                0x00000000080059b8      0x144 src/modules/px4iofirmware/libpx4iofirmware.a(serial.c.obj)
 .text.serial_interrupt
                0x0000000008005afc       0xd0 src/modules/px4iofirmware/libpx4iofirmware.a(serial.c.obj)
 .text.interface_init
                0x0000000008005bcc       0xcc src/modules/px4iofirmware/libpx4iofirmware.a(serial.c.obj)
                0x0000000008005bcc                interface_init
 .text.pwm_limit_init
                0x0000000008005c98        0xe src/modules/px4iofirmware/libpx4iofirmware.a(pwm_limit.c.obj)
                0x0000000008005c98                pwm_limit_init
 *fill*         0x0000000008005ca6        0x2 
 .text.pwm_limit_calc
                0x0000000008005ca8      0x214 src/modules/px4iofirmware/libpx4iofirmware.a(pwm_limit.c.obj)
                0x0000000008005ca8                pwm_limit_calc
 .text.adc_init
                0x0000000008005ebc       0x88 src/modules/px4iofirmware/libpx4iofirmware.a(adc.c.obj)
                0x0000000008005ebc                adc_init
 .text.adc_measure
                0x0000000008005f44       0x78 src/modules/px4iofirmware/libpx4iofirmware.a(adc.c.obj)
                0x0000000008005f44                adc_measure
 .text.controls_init
                0x0000000008005fbc       0x90 src/modules/px4iofirmware/libpx4iofirmware.a(controls.c.obj)
                0x0000000008005fbc                controls_init
 .text.controls_tick
                0x000000000800604c      0x7c8 src/modules/px4iofirmware/libpx4iofirmware.a(controls.c.obj)
                0x000000000800604c                controls_tick
 .text._ZL14mixer_callbackjhhRf
                0x0000000008006814      0x1b0 src/modules/px4iofirmware/libpx4iofirmware.a(mixer.cpp.obj)
 .text.mixer_handle_text_create_mixer
                0x00000000080069c4       0x94 src/modules/px4iofirmware/libpx4iofirmware.a(mixer.cpp.obj)
                0x00000000080069c4                mixer_handle_text_create_mixer
 .text.mixer_handle_text
                0x0000000008006a58      0x134 src/modules/px4iofirmware/libpx4iofirmware.a(mixer.cpp.obj)
                0x0000000008006a58                mixer_handle_text
 .text.startup._GLOBAL__sub_I_mixer_tick
                0x0000000008006b8c       0x2c src/modules/px4iofirmware/libpx4iofirmware.a(mixer.cpp.obj)
 .text._ZL20mixer_mix_threadsafePfPVt.constprop.3
                0x0000000008006bb8       0x3c src/modules/px4iofirmware/libpx4iofirmware.a(mixer.cpp.obj)
 .text.mixer_set_failsafe
                0x0000000008006bf4      0x108 src/modules/px4iofirmware/libpx4iofirmware.a(mixer.cpp.obj)
                0x0000000008006bf4                mixer_set_failsafe
 .text.mixer_tick
                0x0000000008006cfc      0x604 src/modules/px4iofirmware/libpx4iofirmware.a(mixer.cpp.obj)
                0x0000000008006cfc                mixer_tick
 .text.up_cxxinitialize
                0x0000000008007300       0x30 NuttX/apps/libapps.a(gnu_cxxinitialize.o)
                0x0000000008007300                up_cxxinitialize
 .text.up_udelay
                0x0000000008007330       0x72 NuttX/nuttx/arch/arm/src/libarch.a(up_udelay.o)
                0x0000000008007330                up_udelay
 *fill*         0x00000000080073a2        0x2 
 .text.up_systemreset
                0x00000000080073a4       0x1c NuttX/nuttx/arch/arm/src/libarch.a(up_systemreset.o)
                0x00000000080073a4                up_systemreset
 .text.stm32_boardinitialize
                0x00000000080073c0      0x110 src/drivers/boards/px4io-v2/libdrivers_board.a(init.c.obj)
                0x00000000080073c0                stm32_boardinitialize
 .text.hrt_absolute_time
                0x00000000080074d0       0x50 src/drivers/stm32/libdrivers_arch.a(drv_hrt.c.obj)
                0x00000000080074d0                hrt_absolute_time
 .text.hrt_call_reschedule
                0x0000000008007520       0x5c src/drivers/stm32/libdrivers_arch.a(drv_hrt.c.obj)
 .text.hrt_call_enter
                0x000000000800757c       0x4c src/drivers/stm32/libdrivers_arch.a(drv_hrt.c.obj)
 .text.hrt_call_internal
                0x00000000080075c8       0x4c src/drivers/stm32/libdrivers_arch.a(drv_hrt.c.obj)
 .text.hrt_tim_isr
                0x0000000008007614      0x1f0 src/drivers/stm32/libdrivers_arch.a(drv_hrt.c.obj)
 .text.hrt_elapsed_time
                0x0000000008007804       0x28 src/drivers/stm32/libdrivers_arch.a(drv_hrt.c.obj)
                0x0000000008007804                hrt_elapsed_time
 .text.hrt_init
                0x000000000800782c       0x84 src/drivers/stm32/libdrivers_arch.a(drv_hrt.c.obj)
                0x000000000800782c                hrt_init
 .text.hrt_call_every
                0x00000000080078b0       0x2e src/drivers/stm32/libdrivers_arch.a(drv_hrt.c.obj)
                0x00000000080078b0                hrt_call_every
 .text.up_pwm_servo_set
                0x00000000080078de        0x4 src/drivers/stm32/libdrivers_arch.a(drv_pwm_servo.c.obj)
                0x00000000080078de                up_pwm_servo_set
 .text.up_pwm_servo_init
                0x00000000080078e2       0x74 src/drivers/stm32/libdrivers_arch.a(drv_pwm_servo.c.obj)
                0x00000000080078e2                up_pwm_servo_init
 *fill*         0x0000000008007956        0x2 
 .text.up_pwm_servo_set_rate_group_update
                0x0000000008007958       0x30 src/drivers/stm32/libdrivers_arch.a(drv_pwm_servo.c.obj)
                0x0000000008007958                up_pwm_servo_set_rate_group_update
 .text.up_pwm_update
                0x0000000008007988        0x4 src/drivers/stm32/libdrivers_arch.a(drv_pwm_servo.c.obj)
                0x0000000008007988                up_pwm_update
 .text.up_pwm_servo_get_rate_group
                0x000000000800798c       0x20 src/drivers/stm32/libdrivers_arch.a(drv_pwm_servo.c.obj)
                0x000000000800798c                up_pwm_servo_get_rate_group
 .text.up_pwm_servo_arm
                0x00000000080079ac       0x1a src/drivers/stm32/libdrivers_arch.a(drv_pwm_servo.c.obj)
                0x00000000080079ac                up_pwm_servo_arm
 *fill*         0x00000000080079c6        0x2 
 .text.get_timer_channels
                0x00000000080079c8       0x48 src/drivers/stm32/libdrivers_arch.a(drv_io_timer.c.obj)
 .text.io_timer_handler0
                0x0000000008007a10        0x4 src/drivers/stm32/libdrivers_arch.a(drv_io_timer.c.obj)
                0x0000000008007a10                io_timer_handler0
 .text.io_timer_handler1
                0x0000000008007a14        0x4 src/drivers/stm32/libdrivers_arch.a(drv_io_timer.c.obj)
                0x0000000008007a14                io_timer_handler1
 .text.io_timer_handler2
                0x0000000008007a18        0x4 src/drivers/stm32/libdrivers_arch.a(drv_io_timer.c.obj)
                0x0000000008007a18                io_timer_handler2
 .text.io_timer_validate_channel_index
                0x0000000008007a1c       0x3c src/drivers/stm32/libdrivers_arch.a(drv_io_timer.c.obj)
                0x0000000008007a1c                io_timer_validate_channel_index
 .text.io_timer_is_channel_free
                0x0000000008007a58       0x20 src/drivers/stm32/libdrivers_arch.a(drv_io_timer.c.obj)
                0x0000000008007a58                io_timer_is_channel_free
 .text.io_timer_get_mode_channels
                0x0000000008007a78       0x10 src/drivers/stm32/libdrivers_arch.a(drv_io_timer.c.obj)
                0x0000000008007a78                io_timer_get_mode_channels
 .text.io_timer_get_channel_mode
                0x0000000008007a88       0x20 src/drivers/stm32/libdrivers_arch.a(drv_io_timer.c.obj)
                0x0000000008007a88                io_timer_get_channel_mode
 .text.io_timer_trigger
                0x0000000008007aa8       0x74 src/drivers/stm32/libdrivers_arch.a(drv_io_timer.c.obj)
                0x0000000008007aa8                io_timer_trigger
 .text.io_timer_init_timer
                0x0000000008007b1c       0xac src/drivers/stm32/libdrivers_arch.a(drv_io_timer.c.obj)
                0x0000000008007b1c                io_timer_init_timer
 .text.io_timer_set_rate
                0x0000000008007bc8       0xbc src/drivers/stm32/libdrivers_arch.a(drv_io_timer.c.obj)
                0x0000000008007bc8                io_timer_set_rate
 .text.io_timer_channel_init
                0x0000000008007c84      0x110 src/drivers/stm32/libdrivers_arch.a(drv_io_timer.c.obj)
                0x0000000008007c84                io_timer_channel_init
 .text.io_timer_set_enable
                0x0000000008007d94      0x198 src/drivers/stm32/libdrivers_arch.a(drv_io_timer.c.obj)
                0x0000000008007d94                io_timer_set_enable
 .text.io_timer_free_channel
                0x0000000008007f2c       0x50 src/drivers/stm32/libdrivers_arch.a(drv_io_timer.c.obj)
                0x0000000008007f2c                io_timer_free_channel
 .text.io_timer_set_ccr
                0x0000000008007f7c       0x44 src/drivers/stm32/libdrivers_arch.a(drv_io_timer.c.obj)
                0x0000000008007f7c                io_timer_set_ccr
 .text.io_timer_get_group
                0x0000000008007fc0        0x4 src/drivers/stm32/libdrivers_arch.a(drv_io_timer.c.obj)
                0x0000000008007fc0                io_timer_get_group
 .text._ZN10MixerGroup8set_trimEf
                0x0000000008007fc4        0x4 src/lib/mixer/libmixer.a(mixer_group.cpp.obj)
                0x0000000008007fc4                MixerGroup::set_trim(float)
 .text._ZN10MixerGroup8get_trimEPf
                0x0000000008007fc8        0x4 src/lib/mixer/libmixer.a(mixer_group.cpp.obj)
                0x0000000008007fc8                MixerGroup::get_trim(float*)
 .text._ZN10MixerGroup3mixEPfj
                0x0000000008007fcc       0x28 src/lib/mixer/libmixer.a(mixer_group.cpp.obj)
                0x0000000008007fcc                MixerGroup::mix(float*, unsigned int)
 .text._ZN10MixerGroup17set_thrust_factorEf
                0x0000000008007ff4       0x18 src/lib/mixer/libmixer.a(mixer_group.cpp.obj)
                0x0000000008007ff4                MixerGroup::set_thrust_factor(float)
 .text._ZN10MixerGroup11set_airmodeEb
                0x000000000800800c       0x18 src/lib/mixer/libmixer.a(mixer_group.cpp.obj)
                0x000000000800800c                MixerGroup::set_airmode(bool)
 .text._ZN10MixerGroup21get_saturation_statusEv
                0x0000000008008024       0x1c src/lib/mixer/libmixer.a(mixer_group.cpp.obj)
                0x0000000008008024                MixerGroup::get_saturation_status()
 .text._ZN10MixerGroup15groups_requiredERj
                0x0000000008008040       0x18 src/lib/mixer/libmixer.a(mixer_group.cpp.obj)
                0x0000000008008040                MixerGroup::groups_required(unsigned int&)
 .text._ZN10MixerGroup22set_max_delta_out_onceEf
                0x0000000008008058       0x18 src/lib/mixer/libmixer.a(mixer_group.cpp.obj)
                0x0000000008008058                MixerGroup::set_max_delta_out_once(float)
 .text._ZN10MixerGroupC2EPFijhhRfEj
                0x0000000008008070       0x18 src/lib/mixer/libmixer.a(mixer_group.cpp.obj)
                0x0000000008008070                MixerGroup::MixerGroup(int (*)(unsigned int, unsigned char, unsigned char, float&), unsigned int)
                0x0000000008008070                MixerGroup::MixerGroup(int (*)(unsigned int, unsigned char, unsigned char, float&), unsigned int)
 .text._ZN10MixerGroup9add_mixerEP5Mixer
                0x0000000008008088       0x14 src/lib/mixer/libmixer.a(mixer_group.cpp.obj)
                0x0000000008008088                MixerGroup::add_mixer(Mixer*)
 .text._ZN10MixerGroup5resetEv
                0x000000000800809c       0x1a src/lib/mixer/libmixer.a(mixer_group.cpp.obj)
                0x000000000800809c                MixerGroup::reset()
 *fill*         0x00000000080080b6        0x2 
 .text._ZN10MixerGroupD2Ev
                0x00000000080080b8       0x14 src/lib/mixer/libmixer.a(mixer_group.cpp.obj)
                0x00000000080080b8                MixerGroup::~MixerGroup()
                0x00000000080080b8                MixerGroup::~MixerGroup()
 .text._ZN10MixerGroupD0Ev
                0x00000000080080cc       0x12 src/lib/mixer/libmixer.a(mixer_group.cpp.obj)
                0x00000000080080cc                MixerGroup::~MixerGroup()
 *fill*         0x00000000080080de        0x2 
 .text._ZN10MixerGroup9set_trimsEPsj
                0x00000000080080e0       0x64 src/lib/mixer/libmixer.a(mixer_group.cpp.obj)
                0x00000000080080e0                MixerGroup::set_trims(short*, unsigned int)
 .text._ZN10MixerGroup13load_from_bufEPKcRj
                0x0000000008008144       0x7e src/lib/mixer/libmixer.a(mixer_group.cpp.obj)
                0x0000000008008144                MixerGroup::load_from_buf(char const*, unsigned int&)
 .text._ZN5Mixer22set_max_delta_out_onceEf
                0x00000000080081c2        0x2 src/lib/mixer/libmixer.a(mixer_helicopter.cpp.obj)
                0x00000000080081c2                Mixer::set_max_delta_out_once(float)
 .text._ZN5Mixer17set_thrust_factorEf
                0x00000000080081c4        0x2 src/lib/mixer/libmixer.a(mixer_helicopter.cpp.obj)
                0x00000000080081c4                Mixer::set_thrust_factor(float)
 .text._ZN5Mixer11set_airmodeEb
                0x00000000080081c6        0x2 src/lib/mixer/libmixer.a(mixer_helicopter.cpp.obj)
                0x00000000080081c6                Mixer::set_airmode(bool)
 .text._ZN15HelicopterMixer21get_saturation_statusEv
                0x00000000080081c8        0x4 src/lib/mixer/libmixer.a(mixer_helicopter.cpp.obj)
                0x00000000080081c8                HelicopterMixer::get_saturation_status()
 .text._ZN15HelicopterMixer8set_trimEf
                0x00000000080081cc        0x4 src/lib/mixer/libmixer.a(mixer_helicopter.cpp.obj)
                0x00000000080081cc                HelicopterMixer::set_trim(float)
 .text._ZN15HelicopterMixer8get_trimEPf
                0x00000000080081d0        0x4 src/lib/mixer/libmixer.a(mixer_helicopter.cpp.obj)
                0x00000000080081d0                HelicopterMixer::get_trim(float*)
 .text._ZN15HelicopterMixer15groups_requiredERj
                0x00000000080081d4        0xa src/lib/mixer/libmixer.a(mixer_helicopter.cpp.obj)
                0x00000000080081d4                HelicopterMixer::groups_required(unsigned int&)
 .text._ZN15HelicopterMixerD2Ev
                0x00000000080081de        0x2 src/lib/mixer/libmixer.a(mixer_helicopter.cpp.obj)
                0x00000000080081de                HelicopterMixer::~HelicopterMixer()
                0x00000000080081de                HelicopterMixer::~HelicopterMixer()
 .text._ZN15HelicopterMixerD0Ev
                0x00000000080081e0        0xc src/lib/mixer/libmixer.a(mixer_helicopter.cpp.obj)
                0x00000000080081e0                HelicopterMixer::~HelicopterMixer()
 .text._ZN15HelicopterMixer3mixEPfj
                0x00000000080081ec      0x1d4 src/lib/mixer/libmixer.a(mixer_helicopter.cpp.obj)
                0x00000000080081ec                HelicopterMixer::mix(float*, unsigned int)
 .text._ZN15HelicopterMixerC2EPFijhhRfEjP12mixer_heli_s
                0x00000000080083c0       0x24 src/lib/mixer/libmixer.a(mixer_helicopter.cpp.obj)
                0x00000000080083c0                HelicopterMixer::HelicopterMixer(int (*)(unsigned int, unsigned char, unsigned char, float&), unsigned int, mixer_heli_s*)
                0x00000000080083c0                HelicopterMixer::HelicopterMixer(int (*)(unsigned int, unsigned char, unsigned char, float&), unsigned int, mixer_heli_s*)
 .text._ZN15HelicopterMixer9from_textEPFijhhRfEjPKcRj
                0x00000000080083e4      0x210 src/lib/mixer/libmixer.a(mixer_helicopter.cpp.obj)
                0x00000000080083e4                HelicopterMixer::from_text(int (*)(unsigned int, unsigned char, unsigned char, float&), unsigned int, char const*, unsigned int&)
 .text._ZN15MultirotorMixer22set_max_delta_out_onceEf
                0x00000000080085f4        0x4 src/lib/mixer/libmixer.a(mixer_multirotor.cpp.obj)
                0x00000000080085f4                MultirotorMixer::set_max_delta_out_once(float)
 .text._ZN15MultirotorMixer8set_trimEf
                0x00000000080085f8        0x4 src/lib/mixer/libmixer.a(mixer_multirotor.cpp.obj)
                0x00000000080085f8                MultirotorMixer::set_trim(float)
 .text._ZN15MultirotorMixer8get_trimEPf
                0x00000000080085fc        0x4 src/lib/mixer/libmixer.a(mixer_multirotor.cpp.obj)
                0x00000000080085fc                MultirotorMixer::get_trim(float*)
 .text._ZN15MultirotorMixer17set_thrust_factorEf
                0x0000000008008600        0x4 src/lib/mixer/libmixer.a(mixer_multirotor.cpp.obj)
                0x0000000008008600                MultirotorMixer::set_thrust_factor(float)
 .text._ZN15MultirotorMixer11set_airmodeEb
                0x0000000008008604        0x6 src/lib/mixer/libmixer.a(mixer_multirotor.cpp.obj)
                0x0000000008008604                MultirotorMixer::set_airmode(bool)
 .text._ZN15MultirotorMixer15groups_requiredERj
                0x000000000800860a        0xa src/lib/mixer/libmixer.a(mixer_multirotor.cpp.obj)
                0x000000000800860a                MultirotorMixer::groups_required(unsigned int&)
 .text._ZN15MultirotorMixer21get_saturation_statusEv
                0x0000000008008614        0x4 src/lib/mixer/libmixer.a(mixer_multirotor.cpp.obj)
                0x0000000008008614                MultirotorMixer::get_saturation_status()
 .text._ZN15MultirotorMixerD2Ev
                0x0000000008008618       0x18 src/lib/mixer/libmixer.a(mixer_multirotor.cpp.obj)
                0x0000000008008618                MultirotorMixer::~MultirotorMixer()
                0x0000000008008618                MultirotorMixer::~MultirotorMixer()
 .text._ZN15MultirotorMixerD0Ev
                0x0000000008008630       0x12 src/lib/mixer/libmixer.a(mixer_multirotor.cpp.obj)
                0x0000000008008630                MultirotorMixer::~MultirotorMixer()
 *fill*         0x0000000008008642        0x2 
 .text._ZN15MultirotorMixerC2EPFijhhRfEj18MultirotorGeometryffff
                0x0000000008008644       0x84 src/lib/mixer/libmixer.a(mixer_multirotor.cpp.obj)
                0x0000000008008644                MultirotorMixer::MultirotorMixer(int (*)(unsigned int, unsigned char, unsigned char, float&), unsigned int, MultirotorGeometry, float, float, float, float)
                0x0000000008008644                MultirotorMixer::MultirotorMixer(int (*)(unsigned int, unsigned char, unsigned char, float&), unsigned int, MultirotorGeometry, float, float, float, float)
 .text._ZN15MultirotorMixer9from_textEPFijhhRfEjPKcRj
                0x00000000080086c8       0xc8 src/lib/mixer/libmixer.a(mixer_multirotor.cpp.obj)
                0x00000000080086c8                MultirotorMixer::from_text(int (*)(unsigned int, unsigned char, unsigned char, float&), unsigned int, char const*, unsigned int&)
 .text._ZN15MultirotorMixer24update_saturation_statusEjbb
                0x0000000008008790      0x16e src/lib/mixer/libmixer.a(mixer_multirotor.cpp.obj)
                0x0000000008008790                MultirotorMixer::update_saturation_status(unsigned int, bool, bool)
 *fill*         0x00000000080088fe        0x2 
 .text._ZN15MultirotorMixer3mixEPfj
                0x0000000008008900      0x574 src/lib/mixer/libmixer.a(mixer_multirotor.cpp.obj)
                0x0000000008008900                MultirotorMixer::mix(float*, unsigned int)
 .text._ZN11SimpleMixer8set_trimEf
                0x0000000008008e74        0x8 src/lib/mixer/libmixer.a(mixer_simple.cpp.obj)
                0x0000000008008e74                SimpleMixer::set_trim(float)
 .text._ZN11SimpleMixer8get_trimEPf
                0x0000000008008e7c        0xa src/lib/mixer/libmixer.a(mixer_simple.cpp.obj)
                0x0000000008008e7c                SimpleMixer::get_trim(float*)
 .text._ZN11SimpleMixer21get_saturation_statusEv
                0x0000000008008e86        0x4 src/lib/mixer/libmixer.a(mixer_simple.cpp.obj)
                0x0000000008008e86                SimpleMixer::get_saturation_status()
 .text._ZN11SimpleMixer15groups_requiredERj
                0x0000000008008e8a       0x26 src/lib/mixer/libmixer.a(mixer_simple.cpp.obj)
                0x0000000008008e8a                SimpleMixer::groups_required(unsigned int&)
 .text._ZN11SimpleMixerD2Ev
                0x0000000008008eb0       0x18 src/lib/mixer/libmixer.a(mixer_simple.cpp.obj)
                0x0000000008008eb0                SimpleMixer::~SimpleMixer()
                0x0000000008008eb0                SimpleMixer::~SimpleMixer()
 .text._ZN11SimpleMixerD0Ev
                0x0000000008008ec8       0x12 src/lib/mixer/libmixer.a(mixer_simple.cpp.obj)
                0x0000000008008ec8                SimpleMixer::~SimpleMixer()
 .text._ZN11SimpleMixer3mixEPfj
                0x0000000008008eda       0x6c src/lib/mixer/libmixer.a(mixer_simple.cpp.obj)
                0x0000000008008eda                SimpleMixer::mix(float*, unsigned int)
 *fill*         0x0000000008008f46        0x2 
 .text._ZN11SimpleMixer19parse_output_scalerEPKcRjR14mixer_scaler_s
                0x0000000008008f48       0xa4 src/lib/mixer/libmixer.a(mixer_simple.cpp.obj)
                0x0000000008008f48                SimpleMixer::parse_output_scaler(char const*, unsigned int&, mixer_scaler_s&)
 .text._ZN11SimpleMixer20parse_control_scalerEPKcRjR14mixer_scaler_sRhS5_
                0x0000000008008fec       0xac src/lib/mixer/libmixer.a(mixer_simple.cpp.obj)
                0x0000000008008fec                SimpleMixer::parse_control_scaler(char const*, unsigned int&, mixer_scaler_s&, unsigned char&, unsigned char&)
 .text._ZN11SimpleMixer9from_textEPFijhhRfEjPKcRj
                0x0000000008009098       0xc0 src/lib/mixer/libmixer.a(mixer_simple.cpp.obj)
                0x0000000008009098                SimpleMixer::from_text(int (*)(unsigned int, unsigned char, unsigned char, float&), unsigned int, char const*, unsigned int&)
 .text._ZN9NullMixerD2Ev
                0x0000000008009158        0x2 src/lib/mixer/libmixer.a(mixer.cpp.obj)
                0x0000000008009158                NullMixer::~NullMixer()
                0x0000000008009158                NullMixer::~NullMixer()
 .text._ZN9NullMixer10set_offsetEf
                0x000000000800915a        0x2 src/lib/mixer/libmixer.a(mixer.cpp.obj)
                0x000000000800915a                NullMixer::set_offset(float)
 .text._ZN9NullMixer8set_trimEf
                0x000000000800915c        0x4 src/lib/mixer/libmixer.a(mixer.cpp.obj)
                0x000000000800915c                NullMixer::set_trim(float)
 .text._ZN9NullMixer8get_trimEPf
                0x0000000008009160        0x4 src/lib/mixer/libmixer.a(mixer.cpp.obj)
                0x0000000008009160                NullMixer::get_trim(float*)
 .text._ZN9NullMixer3mixEPfj
                0x0000000008009164        0xc src/lib/mixer/libmixer.a(mixer.cpp.obj)
                0x0000000008009164                NullMixer::mix(float*, unsigned int)
 .text._ZN9NullMixer21get_saturation_statusEv
                0x0000000008009170        0x4 src/lib/mixer/libmixer.a(mixer.cpp.obj)
                0x0000000008009170                NullMixer::get_saturation_status()
 .text._ZN9NullMixer15groups_requiredERj
                0x0000000008009174        0x2 src/lib/mixer/libmixer.a(mixer.cpp.obj)
                0x0000000008009174                NullMixer::groups_required(unsigned int&)
 .text._ZN9NullMixerD0Ev
                0x0000000008009176        0xc src/lib/mixer/libmixer.a(mixer.cpp.obj)
                0x0000000008009176                NullMixer::~NullMixer()
 *fill*         0x0000000008009182        0x2 
 .text._ZN5MixerC2EPFijhhRfEj
                0x0000000008009184       0x14 src/lib/mixer/libmixer.a(mixer.cpp.obj)
                0x0000000008009184                Mixer::Mixer(int (*)(unsigned int, unsigned char, unsigned char, float&), unsigned int)
                0x0000000008009184                Mixer::Mixer(int (*)(unsigned int, unsigned char, unsigned char, float&), unsigned int)
 .text._ZN5Mixer11get_controlEhh
                0x0000000008009198       0x10 src/lib/mixer/libmixer.a(mixer.cpp.obj)
                0x0000000008009198                Mixer::get_control(unsigned char, unsigned char)
 .text._ZN5Mixer5scaleERK14mixer_scaler_sf
                0x00000000080091a8       0x44 src/lib/mixer/libmixer.a(mixer.cpp.obj)
                0x00000000080091a8                Mixer::scale(mixer_scaler_s const&, float)
 .text._ZN5Mixer7findtagEPKcRjc
                0x00000000080091ec       0x24 src/lib/mixer/libmixer.a(mixer.cpp.obj)
                0x00000000080091ec                Mixer::findtag(char const*, unsigned int&, char)
 .text._ZN5Mixer8skiplineEPKcRj
                0x0000000008009210       0x2a src/lib/mixer/libmixer.a(mixer.cpp.obj)
                0x0000000008009210                Mixer::skipline(char const*, unsigned int&)
 .text._ZN5Mixer18string_well_formedEPKcRj
                0x000000000800923a       0x1e src/lib/mixer/libmixer.a(mixer.cpp.obj)
                0x000000000800923a                Mixer::string_well_formed(char const*, unsigned int&)
 .text._ZN9NullMixer9from_textEPKcRj
                0x0000000008009258       0x44 src/lib/mixer/libmixer.a(mixer.cpp.obj)
                0x0000000008009258                NullMixer::from_text(char const*, unsigned int&)
 .text.st24_common_crc8
                0x000000000800929c       0x38 src/lib/rc/librc.a(st24.cpp.obj)
                0x000000000800929c                st24_common_crc8
 .text.st24_decode
                0x00000000080092d4      0x218 src/lib/rc/librc.a(st24.cpp.obj)
                0x00000000080092d4                st24_decode
 .text.sumd_crc16
                0x00000000080094ec       0x1e src/lib/rc/librc.a(sumd.cpp.obj)
                0x00000000080094ec                sumd_crc16
 *fill*         0x000000000800950a        0x2 
 .text.sumd_decode
                0x000000000800950c      0x3a4 src/lib/rc/librc.a(sumd.cpp.obj)
                0x000000000800950c                sumd_decode
 .text.sbus_config
                0x00000000080098b0       0x64 src/lib/rc/librc.a(sbus.cpp.obj)
                0x00000000080098b0                sbus_config
 .text.sbus_init
                0x0000000008009914       0x1e src/lib/rc/librc.a(sbus.cpp.obj)
                0x0000000008009914                sbus_init
 *fill*         0x0000000008009932        0x2 
 .text.sbus1_output
                0x0000000008009934      0x100 src/lib/rc/librc.a(sbus.cpp.obj)
                0x0000000008009934                sbus1_output
 .text.sbus2_output
                0x0000000008009a34        0x4 src/lib/rc/librc.a(sbus.cpp.obj)
                0x0000000008009a34                sbus2_output
 .text.sbus_parse
                0x0000000008009a38      0x258 src/lib/rc/librc.a(sbus.cpp.obj)
                0x0000000008009a38                sbus_parse
 .text.sbus_input
                0x0000000008009c90       0x54 src/lib/rc/librc.a(sbus.cpp.obj)
                0x0000000008009c90                sbus_input
 .text.sbus1_set_output_rate_hz
                0x0000000008009ce4       0x24 src/lib/rc/librc.a(sbus.cpp.obj)
                0x0000000008009ce4                sbus1_set_output_rate_hz
 .text._ZL16dsm_guess_formatb.constprop.3
                0x0000000008009d08       0x24 src/lib/rc/librc.a(dsm.cpp.obj)
 .text.dsm_config
                0x0000000008009d2c       0x64 src/lib/rc/librc.a(dsm.cpp.obj)
                0x0000000008009d2c                dsm_config
 .text.dsm_proto_init
                0x0000000008009d90       0x38 src/lib/rc/librc.a(dsm.cpp.obj)
                0x0000000008009d90                dsm_proto_init
 .text.dsm_init
                0x0000000008009dc8       0x2c src/lib/rc/librc.a(dsm.cpp.obj)
                0x0000000008009dc8                dsm_init
 .text.dsm_bind
                0x0000000008009df4       0x7c src/lib/rc/librc.a(dsm.cpp.obj)
                0x0000000008009df4                dsm_bind
 .text.dsm_parse
                0x0000000008009e70      0x2bc src/lib/rc/librc.a(dsm.cpp.obj)
                0x0000000008009e70                dsm_parse
 .text.dsm_input
                0x000000000800a12c       0x5c src/lib/rc/librc.a(dsm.cpp.obj)
                0x000000000800a12c                dsm_input
 .text.__cxa_pure_virtual
                0x000000000800a188       0x10 NuttX/nuttx/libxx/libcxx.a(libxx_cxapurevirtual.o)
                0x000000000800a188                __cxa_pure_virtual
 .text.__aeabi_atexit
                0x000000000800a198        0xa NuttX/nuttx/libxx/libcxx.a(libxx_eabi_atexit.o)
                0x000000000800a198                __aeabi_atexit
 .text.__cxa_atexit
                0x000000000800a1a2        0x4 NuttX/nuttx/libxx/libcxx.a(libxx_cxa_atexit.o)
                0x000000000800a1a2                __cxa_atexit
 .text._ZdlPv   0x000000000800a1a6        0x4 NuttX/nuttx/libxx/libcxx.a(libxx_delete.o)
                0x000000000800a1a6                operator delete(void*)
 .text._ZdaPv   0x000000000800a1aa        0x4 NuttX/nuttx/libxx/libcxx.a(libxx_deletea.o)
                0x000000000800a1aa                operator delete[](void*)
 .text._Znwj    0x000000000800a1ae        0xa NuttX/nuttx/libxx/libcxx.a(libxx_new.o)
                0x000000000800a1ae                operator new(unsigned int)
 .text._Znaj    0x000000000800a1b8        0xa NuttX/nuttx/libxx/libcxx.a(libxx_newa.o)
                0x000000000800a1b8                operator new[](unsigned int)
 *fill*         0x000000000800a1c2        0x2 
 .text.crc32part
                0x000000000800a1c4       0x24 NuttX/nuttx/libc/libc.a(lib_crc32.o)
                0x000000000800a1c4                crc32part
 .text.sq_rem   0x000000000800a1e8       0x2c NuttX/nuttx/libc/libc.a(sq_rem.o)
                0x000000000800a1e8                sq_rem
 .text.printf   0x000000000800a214       0x1c NuttX/nuttx/libc/libc.a(lib_printf.o)
                0x000000000800a214                printf
 .text.vsnprintf
                0x000000000800a230       0x2a NuttX/nuttx/libc/libc.a(lib_vsnprintf.o)
                0x000000000800a230                vsnprintf
 .text.memoutstream_putc
                0x000000000800a25a       0x1a NuttX/nuttx/libc/libc.a(lib_memoutstream.o)
 .text.lib_memoutstream
                0x000000000800a274       0x20 NuttX/nuttx/libc/libc.a(lib_memoutstream.o)
                0x000000000800a274                lib_memoutstream
 .text.isspace  0x000000000800a294       0x14 NuttX/nuttx/libc/libc.a(lib_sscanf.o)
 .text.vsscanf  0x000000000800a2a8      0x304 NuttX/nuttx/libc/libc.a(lib_sscanf.o)
                0x000000000800a2a8                vsscanf
 .text.sscanf   0x000000000800a5ac       0x1a NuttX/nuttx/libc/libc.a(lib_sscanf.o)
                0x000000000800a5ac                sscanf
 .text.strtol   0x000000000800a5c6       0x64 NuttX/nuttx/libc/libc.a(lib_strtol.o)
                0x000000000800a5c6                strtol
 .text.strtoul  0x000000000800a62a       0x6a NuttX/nuttx/libc/libc.a(lib_strtoul.o)
                0x000000000800a62a                strtoul
 .text.lib_checkbase
                0x000000000800a694       0x5c NuttX/nuttx/libc/libc.a(lib_checkbase.o)
                0x000000000800a694                lib_checkbase
 .text.lib_isbasedigit
                0x000000000800a6f0       0x4e NuttX/nuttx/libc/libc.a(lib_isbasedigit.o)
                0x000000000800a6f0                lib_isbasedigit
 .text.memchr   0x000000000800a73e       0x1c NuttX/nuttx/libc/libc.a(lib_memchr.o)
                0x000000000800a73e                memchr
 .text.memmove  0x000000000800a75a       0x2e NuttX/nuttx/libc/libc.a(lib_memmove.o)
                0x000000000800a75a                memmove
 .text.lib_skipspace
                0x000000000800a788       0x16 NuttX/nuttx/libc/libc.a(lib_skipspace.o)
                0x000000000800a788                lib_skipspace
 .text.strcmp   0x000000000800a79e       0x16 NuttX/nuttx/libc/libc.a(lib_strcmp.o)
                0x000000000800a79e                strcmp
 .text.strcspn  0x000000000800a7b4       0x1e NuttX/nuttx/libc/libc.a(lib_strcspn.o)
                0x000000000800a7b4                strcspn
 .text.tcgetattr
                0x000000000800a7d2        0xa NuttX/nuttx/libc/libc.a(lib_tcgetattr.o)
                0x000000000800a7d2                tcgetattr
 .text.tcsetattr
                0x000000000800a7dc       0x10 NuttX/nuttx/libc/libc.a(lib_tcsetattr.o)
                0x000000000800a7dc                tcsetattr
 .text.file_ioctl
                0x000000000800a7ec       0x2a NuttX/nuttx/fs/libfs.a(fs_ioctl.o)
                0x000000000800a7ec                file_ioctl
 .text.ioctl    0x000000000800a816       0x2c NuttX/nuttx/fs/libfs.a(fs_ioctl.o)
                0x000000000800a816                ioctl
 .text.file_read
                0x000000000800a842       0x36 NuttX/nuttx/fs/libfs.a(fs_read.o)
                0x000000000800a842                file_read
 .text.read     0x000000000800a878       0x2c NuttX/nuttx/fs/libfs.a(fs_read.o)
                0x000000000800a878                read
 .text.mallinfo
                0x000000000800a8a4       0x24 NuttX/nuttx/mm/libmm.a(umm_mallinfo.o)
                0x000000000800a8a4                mallinfo
 .text.mm_mallinfo
                0x000000000800a8c8       0x56 NuttX/nuttx/mm/libmm.a(mm_mallinfo.o)
                0x000000000800a8c8                mm_mallinfo
 *fill*         0x000000000800a91e        0x2 
 .text.cosf     0x000000000800a920       0x78 /home/zhouhua/gcc-arm-none-eabi-7-2017-q4-major/bin/../lib/gcc/arm-none-eabi/7.2.1/../../../../arm-none-eabi/lib/thumb/v7-m/libm.a(lib_a-sf_cos.o)
                0x000000000800a920                cosf
 .text.floorf   0x000000000800a998       0x88 /home/zhouhua/gcc-arm-none-eabi-7-2017-q4-major/bin/../lib/gcc/arm-none-eabi/7.2.1/../../../../arm-none-eabi/lib/thumb/v7-m/libm.a(lib_a-sf_floor.o)
                0x000000000800a998                floorf
 .text.fmaxf    0x000000000800aa20       0x28 /home/zhouhua/gcc-arm-none-eabi-7-2017-q4-major/bin/../lib/gcc/arm-none-eabi/7.2.1/../../../../arm-none-eabi/lib/thumb/v7-m/libm.a(lib_a-sf_fmax.o)
                0x000000000800aa20                fmaxf
 .text.fminf    0x000000000800aa48       0x28 /home/zhouhua/gcc-arm-none-eabi-7-2017-q4-major/bin/../lib/gcc/arm-none-eabi/7.2.1/../../../../arm-none-eabi/lib/thumb/v7-m/libm.a(lib_a-sf_fmin.o)
                0x000000000800aa48                fminf
 .text.__fpclassifyf
                0x000000000800aa70       0x34 /home/zhouhua/gcc-arm-none-eabi-7-2017-q4-major/bin/../lib/gcc/arm-none-eabi/7.2.1/../../../../arm-none-eabi/lib/thumb/v7-m/libm.a(lib_a-sf_fpclassify.o)
                0x000000000800aa70                __fpclassifyf
 .text.sinf     0x000000000800aaa4       0x7c /home/zhouhua/gcc-arm-none-eabi-7-2017-q4-major/bin/../lib/gcc/arm-none-eabi/7.2.1/../../../../arm-none-eabi/lib/thumb/v7-m/libm.a(lib_a-sf_sin.o)
                0x000000000800aaa4                sinf
 .text.sqrtf    0x000000000800ab20       0xa0 /home/zhouhua/gcc-arm-none-eabi-7-2017-q4-major/bin/../lib/gcc/arm-none-eabi/7.2.1/../../../../arm-none-eabi/lib/thumb/v7-m/libm.a(lib_a-wf_sqrt.o)
                0x000000000800ab20                sqrtf
 .text.__ieee754_rem_pio2f
                0x000000000800abc0      0x2e4 /home/zhouhua/gcc-arm-none-eabi-7-2017-q4-major/bin/../lib/gcc/arm-none-eabi/7.2.1/../../../../arm-none-eabi/lib/thumb/v7-m/libm.a(lib_a-ef_rem_pio2.o)
                0x000000000800abc0                __ieee754_rem_pio2f
 .text.__ieee754_sqrtf
                0x000000000800aea4       0xa8 /home/zhouhua/gcc-arm-none-eabi-7-2017-q4-major/bin/../lib/gcc/arm-none-eabi/7.2.1/../../../../arm-none-eabi/lib/thumb/v7-m/libm.a(lib_a-ef_sqrt.o)
                0x000000000800aea4                __ieee754_sqrtf
 .text.__kernel_cosf
                0x000000000800af4c      0x188 /home/zhouhua/gcc-arm-none-eabi-7-2017-q4-major/bin/../lib/gcc/arm-none-eabi/7.2.1/../../../../arm-none-eabi/lib/thumb/v7-m/libm.a(lib_a-kf_cos.o)
                0x000000000800af4c                __kernel_cosf
 .text.__kernel_rem_pio2f
                0x000000000800b0d4      0x6c4 /home/zhouhua/gcc-arm-none-eabi-7-2017-q4-major/bin/../lib/gcc/arm-none-eabi/7.2.1/../../../../arm-none-eabi/lib/thumb/v7-m/libm.a(lib_a-kf_rem_pio2.o)
                0x000000000800b0d4                __kernel_rem_pio2f
 .text.__kernel_sinf
                0x000000000800b798       0xec /home/zhouhua/gcc-arm-none-eabi-7-2017-q4-major/bin/../lib/gcc/arm-none-eabi/7.2.1/../../../../arm-none-eabi/lib/thumb/v7-m/libm.a(lib_a-kf_sin.o)
                0x000000000800b798                __kernel_sinf
 .text.matherr  0x000000000800b884        0x4 /home/zhouhua/gcc-arm-none-eabi-7-2017-q4-major/bin/../lib/gcc/arm-none-eabi/7.2.1/../../../../arm-none-eabi/lib/thumb/v7-m/libm.a(lib_a-s_matherr.o)
                0x000000000800b884                matherr
 .text.fabsf    0x000000000800b888        0x8 /home/zhouhua/gcc-arm-none-eabi-7-2017-q4-major/bin/../lib/gcc/arm-none-eabi/7.2.1/../../../../arm-none-eabi/lib/thumb/v7-m/libm.a(lib_a-sf_fabs.o)
                0x000000000800b888                fabsf
 .text.scalbnf  0x000000000800b890       0xb0 /home/zhouhua/gcc-arm-none-eabi-7-2017-q4-major/bin/../lib/gcc/arm-none-eabi/7.2.1/../../../../arm-none-eabi/lib/thumb/v7-m/libm.a(lib_a-sf_scalbn.o)
                0x000000000800b890                scalbnf
 .text.copysignf
                0x000000000800b940        0xc /home/zhouhua/gcc-arm-none-eabi-7-2017-q4-major/bin/../lib/gcc/arm-none-eabi/7.2.1/../../../../arm-none-eabi/lib/thumb/v7-m/libm.a(lib_a-sf_copysign.o)
                0x000000000800b940                copysignf
 .text          0x000000000800b94c      0x378 /home/zhouhua/gcc-arm-none-eabi-7-2017-q4-major/bin/../lib/gcc/arm-none-eabi/7.2.1/thumb/v7-m/libgcc.a(_arm_addsubdf3.o)
                0x000000000800b94c                __aeabi_drsub
                0x000000000800b954                __aeabi_dsub
                0x000000000800b954                __subdf3
                0x000000000800b958                __adddf3
                0x000000000800b958                __aeabi_dadd
                0x000000000800bbd0                __aeabi_ui2d
                0x000000000800bbd0                __floatunsidf
                0x000000000800bbf0                __floatsidf
                0x000000000800bbf0                __aeabi_i2d
                0x000000000800bc14                __extendsfdf2
                0x000000000800bc14                __aeabi_f2d
                0x000000000800bc58                __aeabi_ul2d
                0x000000000800bc58                __floatundidf
                0x000000000800bc68                __floatdidf
                0x000000000800bc68                __aeabi_l2d
 .text          0x000000000800bcc4      0x424 /home/zhouhua/gcc-arm-none-eabi-7-2017-q4-major/bin/../lib/gcc/arm-none-eabi/7.2.1/thumb/v7-m/libgcc.a(_arm_muldivdf3.o)
                0x000000000800bcc4                __aeabi_dmul
                0x000000000800bcc4                __muldf3
                0x000000000800bf18                __aeabi_ddiv
                0x000000000800bf18                __divdf3
 .text          0x000000000800c0e8       0xa0 /home/zhouhua/gcc-arm-none-eabi-7-2017-q4-major/bin/../lib/gcc/arm-none-eabi/7.2.1/thumb/v7-m/libgcc.a(_arm_truncdfsf2.o)
                0x000000000800c0e8                __aeabi_d2f
                0x000000000800c0e8                __truncdfsf2
 .text          0x000000000800c188      0x21c /home/zhouhua/gcc-arm-none-eabi-7-2017-q4-major/bin/../lib/gcc/arm-none-eabi/7.2.1/thumb/v7-m/libgcc.a(_arm_addsubsf3.o)
                0x000000000800c188                __aeabi_frsub
                0x000000000800c190                __subsf3
                0x000000000800c190                __aeabi_fsub
                0x000000000800c194                __aeabi_fadd
                0x000000000800c194                __addsf3
                0x000000000800c2f4                __aeabi_ui2f
                0x000000000800c2f4                __floatunsisf
                0x000000000800c2fc                __aeabi_i2f
                0x000000000800c2fc                __floatsisf
                0x000000000800c318                __floatundisf
                0x000000000800c318                __aeabi_ul2f
                0x000000000800c328                __floatdisf
                0x000000000800c328                __aeabi_l2f
 .text          0x000000000800c3a4      0x2a0 /home/zhouhua/gcc-arm-none-eabi-7-2017-q4-major/bin/../lib/gcc/arm-none-eabi/7.2.1/thumb/v7-m/libgcc.a(_arm_muldivsf3.o)
                0x000000000800c3a4                __mulsf3
                0x000000000800c3a4                __aeabi_fmul
                0x000000000800c50c                __divsf3
                0x000000000800c50c                __aeabi_fdiv
 .text          0x000000000800c644       0xec /home/zhouhua/gcc-arm-none-eabi-7-2017-q4-major/bin/../lib/gcc/arm-none-eabi/7.2.1/thumb/v7-m/libgcc.a(_arm_cmpsf2.o)
                0x000000000800c644                __gtsf2
                0x000000000800c644                __gesf2
                0x000000000800c64c                __lesf2
                0x000000000800c64c                __ltsf2
                0x000000000800c654                __nesf2
                0x000000000800c654                __eqsf2
                0x000000000800c654                __cmpsf2
                0x000000000800c6b4                __aeabi_cfrcmple
                0x000000000800c6bc                __aeabi_cfcmple
                0x000000000800c6bc                __aeabi_cfcmpeq
                0x000000000800c6cc                __aeabi_fcmpeq
                0x000000000800c6e0                __aeabi_fcmplt
                0x000000000800c6f4                __aeabi_fcmple
                0x000000000800c708                __aeabi_fcmpge
                0x000000000800c71c                __aeabi_fcmpgt
 .text          0x000000000800c730       0x2c /home/zhouhua/gcc-arm-none-eabi-7-2017-q4-major/bin/../lib/gcc/arm-none-eabi/7.2.1/thumb/v7-m/libgcc.a(_arm_unordsf2.o)
                0x000000000800c730                __aeabi_fcmpun
                0x000000000800c730                __unordsf2
 .text          0x000000000800c75c       0x4c /home/zhouhua/gcc-arm-none-eabi-7-2017-q4-major/bin/../lib/gcc/arm-none-eabi/7.2.1/thumb/v7-m/libgcc.a(_arm_fixsfsi.o)
                0x000000000800c75c                __fixsfsi
                0x000000000800c75c                __aeabi_f2iz
 .text          0x000000000800c7a8       0x40 /home/zhouhua/gcc-arm-none-eabi-7-2017-q4-major/bin/../lib/gcc/arm-none-eabi/7.2.1/thumb/v7-m/libgcc.a(_arm_fixunssfsi.o)
                0x000000000800c7a8                __aeabi_f2uiz
                0x000000000800c7a8                __fixunssfsi
 .text          0x000000000800c7e8       0x30 /home/zhouhua/gcc-arm-none-eabi-7-2017-q4-major/bin/../lib/gcc/arm-none-eabi/7.2.1/thumb/v7-m/libgcc.a(_aeabi_uldivmod.o)
                0x000000000800c7e8                __aeabi_uldivmod
 .text          0x000000000800c818      0x2d0 /home/zhouhua/gcc-arm-none-eabi-7-2017-q4-major/bin/../lib/gcc/arm-none-eabi/7.2.1/thumb/v7-m/libgcc.a(_udivmoddi4.o)
                0x000000000800c818                __udivmoddi4
 .text          0x000000000800cae8        0x4 /home/zhouhua/gcc-arm-none-eabi-7-2017-q4-major/bin/../lib/gcc/arm-none-eabi/7.2.1/thumb/v7-m/libgcc.a(_dvmd_tls.o)
                0x000000000800cae8                __aeabi_ldiv0
                0x000000000800cae8                __aeabi_idiv0
 .text.perf_count
                0x000000000800caec       0xe8 src/lib/perf/libperf.a(perf_counter.c.obj)
                0x000000000800caec                perf_count
 .text.perf_begin
                0x000000000800cbd4       0x16 src/lib/perf/libperf.a(perf_counter.c.obj)
                0x000000000800cbd4                perf_begin
 *fill*         0x000000000800cbea        0x2 
 .text.perf_end
                0x000000000800cbec       0xc4 src/lib/perf/libperf.a(perf_counter.c.obj)
                0x000000000800cbec                perf_end
 *(.fixup)
 *(.gnu.warning)
 *(.rodata .rodata.*)
 .rodata.g_gpiobase
                0x000000000800ccb0       0x10 NuttX/nuttx/arch/arm/src/libarch.a(stm32_gpio.o)
                0x000000000800ccb0                g_gpiobase
 .rodata.g_uart_dma_ops
                0x000000000800ccc0       0x30 NuttX/nuttx/arch/arm/src/libarch.a(stm32_serial.o)
 .rodata.g_uart_ops
                0x000000000800ccf0       0x30 NuttX/nuttx/arch/arm/src/libarch.a(stm32_serial.o)
 .rodata.uart_devs
                0x000000000800cd20        0xc NuttX/nuttx/arch/arm/src/libarch.a(stm32_serial.o)
 .rodata.up_serialinit.str1.1
                0x000000000800cd2c       0x23 NuttX/nuttx/arch/arm/src/libarch.a(stm32_serial.o)
 .rodata.stm32_dmainterrupt.str1.1
                0x000000000800cd4f       0x17 NuttX/nuttx/arch/arm/src/libarch.a(stm32_dma.o)
 .rodata.__FUNCTION__.6579
                0x000000000800cd66        0xd NuttX/nuttx/arch/arm/src/libarch.a(up_assert.o)
 .rodata.__FUNCTION__.6587
                0x000000000800cd73        0xc NuttX/nuttx/arch/arm/src/libarch.a(up_assert.o)
 .rodata.__FUNCTION__.6594
                0x000000000800cd7f       0x10 NuttX/nuttx/arch/arm/src/libarch.a(up_assert.o)
 .rodata.__FUNCTION__.6602
                0x000000000800cd8f        0xd NuttX/nuttx/arch/arm/src/libarch.a(up_assert.o)
 .rodata.__FUNCTION__.6614
                0x000000000800cd9c        0xa NuttX/nuttx/arch/arm/src/libarch.a(up_assert.o)
 .rodata.up_assert.str1.1
                0x000000000800cda6      0x19e NuttX/nuttx/arch/arm/src/libarch.a(up_assert.o)
 .rodata.up_taskdump.str1.1
                0x000000000800cf44       0x26 NuttX/nuttx/arch/arm/src/libarch.a(up_assert.o)
 .rodata.__FUNCTION__.5415
                0x000000000800cf6a        0xd NuttX/nuttx/arch/arm/src/libarch.a(up_hardfault.o)
 .rodata.up_hardfault.str1.1
                0x000000000800cf77       0x36 NuttX/nuttx/arch/arm/src/libarch.a(up_hardfault.o)
 .rodata        0x000000000800cfad        0x4 NuttX/nuttx/arch/arm/src/libarch.a(stm32_vectors.o)
                0x000000000800cfad                g_idle_topstack
 *fill*         0x000000000800cfb1        0x3 
 .rodata.g_serialops
                0x000000000800cfb4       0x18 NuttX/nuttx/drivers/libdrivers.a(serial.o)
 .rodata.uart_takesem.str1.1
                0x000000000800cfcc       0x10 NuttX/nuttx/drivers/libdrivers.a(serial.o)
 .rodata.g_default_channel
                0x000000000800cfdc        0xc NuttX/nuttx/drivers/libdrivers.a(syslog_channel.o)
                0x000000000800cfdc                g_default_channel
 .rodata.inode_semtake.str1.1
                0x000000000800cfe8       0x11 NuttX/nuttx/fs/libfs.a(fs_inode.o)
 .rodata.mm_takesemaphore.str1.1
                0x000000000800cff9       0x11 NuttX/nuttx/mm/libmm.a(mm_sem.o)
 *fill*         0x000000000800d00a        0x2 
 .rodata.g_tasklisttable
                0x000000000800d00c       0x30 NuttX/nuttx/sched/libsched.a(os_start.o)
                0x000000000800d00c                g_tasklisttable
 .rodata.os_bringup.str1.1
                0x000000000800d03c       0x17 NuttX/nuttx/sched/libsched.a(os_bringup.o)
 .rodata.irq_attach.str1.1
                0x000000000800d053       0x11 NuttX/nuttx/sched/libsched.a(irq_attach.o)
 .rodata.irq_unexpected_isr.str1.1
                0x000000000800d064       0x18 NuttX/nuttx/sched/libsched.a(irq_unexpectedisr.o)
 .rodata.sem_wait.str1.1
                0x000000000800d07c       0x15 NuttX/nuttx/sched/libsched.a(sem_wait.o)
 .rodata.sem_post.str1.1
                0x000000000800d091       0x15 NuttX/nuttx/sched/libsched.a(sem_post.o)
 .rodata.g_noname
                0x000000000800d0a6        0x9 NuttX/nuttx/sched/libsched.a(task_setup.o)
 .rodata.group_setupidlefiles.str1.1
                0x000000000800d0af        0xd NuttX/nuttx/sched/libsched.a(group_setupidlefiles.o)
 .rodata.wd_cancel.str1.1
                0x000000000800d0af       0x11 NuttX/nuttx/sched/libsched.a(wd_cancel.o)
 .rodata.up_block_task.str1.1
                0x000000000800d0c0       0x17 NuttX/nuttx/arch/arm/src/libarch.a(up_blocktask.o)
 .rodata.up_unblock_task.str1.1
                0x000000000800d0d7       0x19 NuttX/nuttx/arch/arm/src/libarch.a(up_unblocktask.o)
 .rodata.g_nullstring
                0x000000000800d0f0        0x7 NuttX/nuttx/libc/libc.a(lib_libvsprintf.o)
 .rodata.lib_vsprintf.str1.1
                0x000000000800d0f7       0x1c NuttX/nuttx/libc/libc.a(lib_libvsprintf.o)
 *fill*         0x000000000800d113        0x1 
 .rodata.g_syslog_console_channel
                0x000000000800d114        0xc NuttX/nuttx/drivers/libdrivers.a(syslog_consolechannel.o)
 .rodata.syslog_console_channel.str1.1
                0x000000000800d120        0xd NuttX/nuttx/drivers/libdrivers.a(syslog_consolechannel.o)
 .rodata.g_syscrlf
                0x000000000800d120        0x2 NuttX/nuttx/drivers/libdrivers.a(syslog_device.o)
 .rodata._files_semtake.str1.1
                0x000000000800d122       0x11 NuttX/nuttx/fs/libfs.a(fs_files.o)
 .rodata.sched_addprioritized.str1.1
                0x000000000800d133       0x1d NuttX/nuttx/sched/libsched.a(sched_addprioritized.o)
 .rodata.sched_mergepending.str1.1
                0x000000000800d150       0x1b NuttX/nuttx/sched/libsched.a(sched_mergepending.o)
 .rodata.user_start.str1.1
                0x000000000800d16b       0x5f src/modules/px4iofirmware/libpx4iofirmware.a(px4io.c.obj)
                                         0x63 (size before relaxing)
 .rodata.r_page_config
                0x000000000800d1ca       0x12 src/modules/px4iofirmware/libpx4iofirmware.a(registers.c.obj)
 .rodata.registers_set.str1.1
                0x000000000800d1dc       0x33 src/modules/px4iofirmware/libpx4iofirmware.a(registers.c.obj)
 .rodata.crc8_tab
                0x000000000800d20f      0x100 src/modules/px4iofirmware/libpx4iofirmware.a(serial.c.obj)
 .rodata.controls_init.str1.1
                0x000000000800d30f        0xb src/modules/px4iofirmware/libpx4iofirmware.a(controls.c.obj)
                                         0x16 (size before relaxing)
 .rodata.mixer_handle_text.str1.1
                0x000000000800d31a       0x25 src/modules/px4iofirmware/libpx4iofirmware.a(mixer.cpp.obj)
 .rodata.mixer_handle_text_create_mixer.str1.1
                0x000000000800d33f        0x8 src/modules/px4iofirmware/libpx4iofirmware.a(mixer.cpp.obj)
 .rodata.mixer_tick.str1.1
                0x000000000800d347       0x2b src/modules/px4iofirmware/libpx4iofirmware.a(mixer.cpp.obj)
 .rodata.latency_buckets
                0x000000000800d372       0x10 src/drivers/stm32/libdrivers_arch.a(drv_hrt.c.obj)
                0x000000000800d372                latency_buckets
 *fill*         0x000000000800d382        0x2 
 .rodata.io_timers
                0x000000000800d384       0xa0 src/drivers/boards/px4io-v2/libdrivers_board.a(timer_config.c.obj)
                0x000000000800d384                io_timers
 .rodata.timer_io_channels
                0x000000000800d424       0x80 src/drivers/boards/px4io-v2/libdrivers_board.a(timer_config.c.obj)
                0x000000000800d424                timer_io_channels
 .rodata._ZTV10MixerGroup
                0x000000000800d4a4       0x30 src/lib/mixer/libmixer.a(mixer_group.cpp.obj)
                0x000000000800d4a4                vtable for MixerGroup
 .rodata._ZN15HelicopterMixer9from_textEPFijhhRfEjPKcRj.str1.1
                0x000000000800d4d4       0x41 src/lib/mixer/libmixer.a(mixer_helicopter.cpp.obj)
 *fill*         0x000000000800d515        0x3 
 .rodata._ZTV15HelicopterMixer
                0x000000000800d518       0x30 src/lib/mixer/libmixer.a(mixer_helicopter.cpp.obj)
                0x000000000800d518                vtable for HelicopterMixer
 .rodata._ZN12_GLOBAL__N_111_config_keyE
                0x000000000800d548       0x54 src/lib/mixer/libmixer.a(mixer_multirotor.cpp.obj)
 .rodata._ZN12_GLOBAL__N_113_config_indexE
                0x000000000800d59c       0x54 src/lib/mixer/libmixer.a(mixer_multirotor.cpp.obj)
 .rodata._ZN12_GLOBAL__N_1L13_config_hex_tE
                0x000000000800d5f0       0x60 src/lib/mixer/libmixer.a(mixer_multirotor.cpp.obj)
 .rodata._ZN12_GLOBAL__N_1L13_config_hex_xE
                0x000000000800d650       0x60 src/lib/mixer/libmixer.a(mixer_multirotor.cpp.obj)
 .rodata._ZN12_GLOBAL__N_1L13_config_tri_yE
                0x000000000800d6b0       0x30 src/lib/mixer/libmixer.a(mixer_multirotor.cpp.obj)
 .rodata._ZN12_GLOBAL__N_1L14_config_octa_xE
                0x000000000800d6e0       0x80 src/lib/mixer/libmixer.a(mixer_multirotor.cpp.obj)
 .rodata._ZN12_GLOBAL__N_1L14_config_quad_hE
                0x000000000800d760       0x40 src/lib/mixer/libmixer.a(mixer_multirotor.cpp.obj)
 .rodata._ZN12_GLOBAL__N_1L14_config_quad_xE
                0x000000000800d7a0       0x40 src/lib/mixer/libmixer.a(mixer_multirotor.cpp.obj)
 .rodata._ZN12_GLOBAL__N_1L14_config_quad_yE
                0x000000000800d7e0       0x40 src/lib/mixer/libmixer.a(mixer_multirotor.cpp.obj)
 .rodata._ZN12_GLOBAL__N_1L15_config_hex_coxE
                0x000000000800d820       0x60 src/lib/mixer/libmixer.a(mixer_multirotor.cpp.obj)
 .rodata._ZN12_GLOBAL__N_1L16_config_hex_plusE
                0x000000000800d880       0x60 src/lib/mixer/libmixer.a(mixer_multirotor.cpp.obj)
 .rodata._ZN12_GLOBAL__N_1L16_config_octa_coxE
                0x000000000800d8e0       0x80 src/lib/mixer/libmixer.a(mixer_multirotor.cpp.obj)
 .rodata._ZN12_GLOBAL__N_1L17_config_octa_plusE
                0x000000000800d960       0x80 src/lib/mixer/libmixer.a(mixer_multirotor.cpp.obj)
 .rodata._ZN12_GLOBAL__N_1L17_config_quad_plusE
                0x000000000800d9e0       0x40 src/lib/mixer/libmixer.a(mixer_multirotor.cpp.obj)
 .rodata._ZN12_GLOBAL__N_1L17_config_quad_wideE
                0x000000000800da20       0x40 src/lib/mixer/libmixer.a(mixer_multirotor.cpp.obj)
 .rodata._ZN12_GLOBAL__N_1L18_config_quad_vtailE
                0x000000000800da60       0x40 src/lib/mixer/libmixer.a(mixer_multirotor.cpp.obj)
 .rodata._ZN12_GLOBAL__N_1L19_config_quad_s250aqE
                0x000000000800daa0       0x40 src/lib/mixer/libmixer.a(mixer_multirotor.cpp.obj)
 .rodata._ZN12_GLOBAL__N_1L19_config_rotor_countE
                0x000000000800dae0       0x54 src/lib/mixer/libmixer.a(mixer_multirotor.cpp.obj)
 .rodata._ZN12_GLOBAL__N_1L19_config_twin_engineE
                0x000000000800db34       0x20 src/lib/mixer/libmixer.a(mixer_multirotor.cpp.obj)
 .rodata._ZN12_GLOBAL__N_1L20_config_quad_deadcatE
                0x000000000800db54       0x40 src/lib/mixer/libmixer.a(mixer_multirotor.cpp.obj)
 .rodata._ZN12_GLOBAL__N_1L21_config_octa_cox_wideE
                0x000000000800db94       0x80 src/lib/mixer/libmixer.a(mixer_multirotor.cpp.obj)
 .rodata._ZN12_GLOBAL__N_1L21_config_quad_x_pusherE
                0x000000000800dc14       0x50 src/lib/mixer/libmixer.a(mixer_multirotor.cpp.obj)
 .rodata._ZN12_GLOBAL__N_1L22_config_dodeca_top_coxE
                0x000000000800dc64       0x60 src/lib/mixer/libmixer.a(mixer_multirotor.cpp.obj)
 .rodata._ZN12_GLOBAL__N_1L25_config_dodeca_bottom_coxE
                0x000000000800dcc4       0x60 src/lib/mixer/libmixer.a(mixer_multirotor.cpp.obj)
 .rodata._ZN15MultirotorMixer9from_textEPFijhhRfEjPKcRj.str1.1
                0x000000000800dd24       0x15 src/lib/mixer/libmixer.a(mixer_multirotor.cpp.obj)
 *fill*         0x000000000800dd39        0x3 
 .rodata._ZTV15MultirotorMixer
                0x000000000800dd3c       0x30 src/lib/mixer/libmixer.a(mixer_multirotor.cpp.obj)
                0x000000000800dd3c                vtable for MultirotorMixer
 .rodata.str1.1
                0x000000000800dd6c       0x44 src/lib/mixer/libmixer.a(mixer_multirotor.cpp.obj)
 .rodata._ZN11SimpleMixer19parse_output_scalerEPKcRjR14mixer_scaler_s.str1.1
                0x000000000800ddb0       0x15 src/lib/mixer/libmixer.a(mixer_simple.cpp.obj)
 .rodata._ZN11SimpleMixer20parse_control_scalerEPKcRjR14mixer_scaler_sRhS5_.str1.1
                0x000000000800ddc5       0x18 src/lib/mixer/libmixer.a(mixer_simple.cpp.obj)
 .rodata._ZN11SimpleMixer9from_textEPFijhhRfEjPKcRj.str1.1
                0x000000000800dddd        0x8 src/lib/mixer/libmixer.a(mixer_simple.cpp.obj)
 *fill*         0x000000000800dde5        0x3 
 .rodata._ZTV11SimpleMixer
                0x000000000800dde8       0x30 src/lib/mixer/libmixer.a(mixer_simple.cpp.obj)
                0x000000000800dde8                vtable for SimpleMixer
 .rodata._ZTV5Mixer
                0x000000000800de18       0x30 src/lib/mixer/libmixer.a(mixer.cpp.obj)
                0x000000000800de18                vtable for Mixer
 .rodata._ZTV9NullMixer
                0x000000000800de48       0x34 src/lib/mixer/libmixer.a(mixer.cpp.obj)
                0x000000000800de48                vtable for NullMixer
 .rodata.sumd_decode.str1.1
                0x000000000800de7c      0x238 src/lib/rc/librc.a(sumd.cpp.obj)
 .rodata._ZL12sbus_decoder
                0x000000000800e0b4       0xc0 src/lib/rc/librc.a(sbus.cpp.obj)
 .rodata._ZZL16dsm_guess_formatbE5masks
                0x000000000800e174       0x1c src/lib/rc/librc.a(dsm.cpp.obj)
 .rodata.__cxa_pure_virtual.str1.1
                0x000000000800e190       0x19 NuttX/nuttx/libxx/libcxx.a(libxx_cxapurevirtual.o)
 *fill*         0x000000000800e1a9        0x3 
 .rodata.crc32_tab
                0x000000000800e1ac      0x400 NuttX/nuttx/libc/libc.a(lib_crc32.o)
 .rodata.CSWTCH.28
                0x000000000800e5ac       0x21 NuttX/nuttx/libc/libc.a(lib_sscanf.o)
 .rodata.CSWTCH.29
                0x000000000800e5cd       0x21 NuttX/nuttx/libc/libc.a(lib_sscanf.o)
 .rodata.spaces
                0x000000000800e5ee        0x7 NuttX/nuttx/libc/libc.a(lib_sscanf.o)
 .rodata.vsscanf.str1.1
                0x000000000800e5f5       0x1d NuttX/nuttx/libc/libc.a(lib_sscanf.o)
 *fill*         0x000000000800e612        0x2 
 .rodata.sqrtf.str1.4
                0x000000000800e614        0x8 /home/zhouhua/gcc-arm-none-eabi-7-2017-q4-major/bin/../lib/gcc/arm-none-eabi/7.2.1/../../../../arm-none-eabi/lib/thumb/v7-m/libm.a(lib_a-wf_sqrt.o)
                                          0x6 (size before relaxing)
 .rodata.npio2_hw
                0x000000000800e61c       0x80 /home/zhouhua/gcc-arm-none-eabi-7-2017-q4-major/bin/../lib/gcc/arm-none-eabi/7.2.1/../../../../arm-none-eabi/lib/thumb/v7-m/libm.a(lib_a-ef_rem_pio2.o)
 .rodata.two_over_pi
                0x000000000800e69c      0x318 /home/zhouhua/gcc-arm-none-eabi-7-2017-q4-major/bin/../lib/gcc/arm-none-eabi/7.2.1/../../../../arm-none-eabi/lib/thumb/v7-m/libm.a(lib_a-ef_rem_pio2.o)
 .rodata.PIo2   0x000000000800e9b4       0x2c /home/zhouhua/gcc-arm-none-eabi-7-2017-q4-major/bin/../lib/gcc/arm-none-eabi/7.2.1/../../../../arm-none-eabi/lib/thumb/v7-m/libm.a(lib_a-kf_rem_pio2.o)
 .rodata.init_jk
                0x000000000800e9e0        0xc /home/zhouhua/gcc-arm-none-eabi-7-2017-q4-major/bin/../lib/gcc/arm-none-eabi/7.2.1/../../../../arm-none-eabi/lib/thumb/v7-m/libm.a(lib_a-kf_rem_pio2.o)
 *(.gnu.linkonce.t.*)
 *(.glue_7)
 .glue_7        0x000000000800e9ec        0x0 linker stubs
 *(.glue_7t)
 .glue_7t       0x000000000800e9ec        0x0 linker stubs
 *(.got)
 *(.gcc_except_table)
 *(.gnu.linkonce.r.*)
                0x000000000800e9ec                _etext = ABSOLUTE (.)
                0x0000000008002ecc                __errno = get_errno_ptr

.vfp11_veneer   0x000000000800e9ec        0x0
 .vfp11_veneer  0x000000000800e9ec        0x0 linker stubs

.v4_bx          0x000000000800e9ec        0x0
 .v4_bx         0x000000000800e9ec        0x0 linker stubs

.iplt           0x000000000800e9ec        0x0
 .iplt          0x000000000800e9ec        0x0 NuttX/nuttx/arch/arm/src/libarch.a(stm32_start.o)

.init_section   0x000000000800e9ec        0x4
                0x000000000800e9ec                _sinit = ABSOLUTE (.)
 *(.init_array .init_array.*)
 .init_array    0x000000000800e9ec        0x4 src/modules/px4iofirmware/libpx4iofirmware.a(mixer.cpp.obj)
                0x000000000800e9f0                _einit = ABSOLUTE (.)

.ARM.extab
 *(.ARM.extab*)
                0x000000000800e9f0                __exidx_start = ABSOLUTE (.)

.ARM.exidx      0x000000000800e9f0        0x8
 *(.ARM.exidx*)
 .ARM.exidx     0x000000000800e9f0        0x8 /home/zhouhua/gcc-arm-none-eabi-7-2017-q4-major/bin/../lib/gcc/arm-none-eabi/7.2.1/thumb/v7-m/libgcc.a(_udivmoddi4.o)
                0x000000000800e9f8                __exidx_end = ABSOLUTE (.)
                0x000000000800e9f8                _eronly = ABSOLUTE (.)

.rel.dyn        0x000000000800e9f8        0x0
 .rel.iplt      0x000000000800e9f8        0x0 NuttX/nuttx/arch/arm/src/libarch.a(stm32_start.o)

.data           0x0000000020000000      0x22c load address 0x000000000800e9f8
                0x0000000020000000                _sdata = ABSOLUTE (.)
 *(.data .data.*)
 .data.g_usart1priv
                0x0000000020000000       0x68 NuttX/nuttx/arch/arm/src/libarch.a(stm32_serial.o)
 .data.g_usart2priv
                0x0000000020000068       0x68 NuttX/nuttx/arch/arm/src/libarch.a(stm32_serial.o)
 .data.g_usart3priv
                0x00000000200000d0       0x68 NuttX/nuttx/arch/arm/src/libarch.a(stm32_serial.o)
 .data.g_dma    0x0000000020000138       0x70 NuttX/nuttx/arch/arm/src/libarch.a(stm32_dma.o)
 .data.g_syslog_mask
                0x00000000200001a8        0x1 NuttX/nuttx/libc/libc.a(lib_setlogmask.o)
                0x00000000200001a8                g_syslog_mask
 *fill*         0x00000000200001a9        0x3 
 .data.g_syslog_channel
                0x00000000200001ac        0x4 NuttX/nuttx/drivers/libdrivers.a(syslog_channel.o)
                0x00000000200001ac                g_syslog_channel
 .data.brightness.7240
                0x00000000200001b0        0x4 src/modules/px4iofirmware/libpx4iofirmware.a(px4io.c.obj)
 .data.r_page_servo_control_max
                0x00000000200001b4       0x10 src/modules/px4iofirmware/libpx4iofirmware.a(registers.c.obj)
                0x00000000200001b4                r_page_servo_control_max
 .data.r_page_servo_control_min
                0x00000000200001c4       0x10 src/modules/px4iofirmware/libpx4iofirmware.a(registers.c.obj)
                0x00000000200001c4                r_page_servo_control_min
 .data.r_page_setup
                0x00000000200001d4       0x38 src/modules/px4iofirmware/libpx4iofirmware.a(registers.c.obj)
                0x00000000200001d4                r_page_setup
 .data._dsm_fd  0x000000002000020c        0x4 src/modules/px4iofirmware/libpx4iofirmware.a(controls.c.obj)
 .data._sbus_fd
                0x0000000020000210        0x4 src/modules/px4iofirmware/libpx4iofirmware.a(controls.c.obj)
                0x0000000020000210                _sbus_fd
 .data.channel_allocations
                0x0000000020000214        0x6 src/drivers/stm32/libdrivers_arch.a(drv_io_timer.c.obj)
                0x0000000020000214                channel_allocations
 .data._sumd    0x000000002000021a        0x1 src/lib/rc/librc.a(sumd.cpp.obj)
                0x000000002000021a                _sumd
 *fill*         0x000000002000021b        0x1 
 .data._ZL17sbus1_frame_delay
                0x000000002000021c        0x4 src/lib/rc/librc.a(sbus.cpp.obj)
 .data._ZL17sbus_decode_state
                0x0000000020000220        0x2 src/lib/rc/librc.a(sbus.cpp.obj)
 *fill*         0x0000000020000222        0x2 
 .data._ZL6dsm_fd
                0x0000000020000224        0x4 src/lib/rc/librc.a(dsm.cpp.obj)
 .data.__fdlib_version
                0x0000000020000228        0x1 /home/zhouhua/gcc-arm-none-eabi-7-2017-q4-major/bin/../lib/gcc/arm-none-eabi/7.2.1/../../../../arm-none-eabi/lib/thumb/v7-m/libm.a(lib_a-s_lib_ver.o)
                0x0000000020000228                __fdlib_version
 *(.gnu.linkonce.d.*)
                0x0000000020000229                _edata = ABSOLUTE (.)
                0x000000002000022c                . = ALIGN (0x4)
 *fill*         0x0000000020000229        0x3 

.igot.plt       0x000000002000022c        0x0 load address 0x000000000800ec24
 .igot.plt      0x000000002000022c        0x0 NuttX/nuttx/arch/arm/src/libarch.a(stm32_start.o)

.bss            0x0000000020000230      0xb6c load address 0x000000000800ec24
                0x0000000020000230                _sbss = ABSOLUTE (.)
 *(.bss .bss.*)
 .bss.g_usart1rxbuffer
                0x0000000020000230       0x40 NuttX/nuttx/arch/arm/src/libarch.a(stm32_serial.o)
 .bss.g_usart1rxfifo
                0x0000000020000270       0x20 NuttX/nuttx/arch/arm/src/libarch.a(stm32_serial.o)
 .bss.g_usart1txbuffer
                0x0000000020000290       0x28 NuttX/nuttx/arch/arm/src/libarch.a(stm32_serial.o)
 .bss.g_usart2rxbuffer
                0x00000000200002b8       0x40 NuttX/nuttx/arch/arm/src/libarch.a(stm32_serial.o)
 .bss.g_usart2txbuffer
                0x00000000200002f8       0x40 NuttX/nuttx/arch/arm/src/libarch.a(stm32_serial.o)
 .bss.g_usart3rxbuffer
                0x0000000020000338       0x40 NuttX/nuttx/arch/arm/src/libarch.a(stm32_serial.o)
 .bss.g_usart3rxfifo
                0x0000000020000378       0x20 NuttX/nuttx/arch/arm/src/libarch.a(stm32_serial.o)
 .bss.g_usart3txbuffer
                0x0000000020000398       0x40 NuttX/nuttx/arch/arm/src/libarch.a(stm32_serial.o)
 .bss.g_current_regs
                0x00000000200003d8        0x4 NuttX/nuttx/arch/arm/src/libarch.a(stm32_irq.o)
                0x00000000200003d8                g_current_regs
 .bss.g_inode_sem
                0x00000000200003dc        0x6 NuttX/nuttx/fs/libfs.a(fs_inode.o)
 *fill*         0x00000000200003e2        0x2 
 .bss.g_root_inode
                0x00000000200003e4        0x4 NuttX/nuttx/fs/libfs.a(fs_inodesearch.o)
                0x00000000200003e4                g_root_inode
 .bss.g_mmheap  0x00000000200003e8       0xa4 NuttX/nuttx/mm/libmm.a(umm_globals.o)
                0x00000000200003e8                g_mmheap
 .bss.g_irqerrno
                0x000000002000048c        0x4 NuttX/nuttx/sched/libsched.a(errno_getptr.o)
 .bss.g_delayed_kufree
                0x0000000020000490        0x8 NuttX/nuttx/sched/libsched.a(os_start.o)
                0x0000000020000490                g_delayed_kufree
 .bss.g_idleargv
                0x0000000020000498        0x8 NuttX/nuttx/sched/libsched.a(os_start.o)
 .bss.g_idletcb
                0x00000000200004a0       0x90 NuttX/nuttx/sched/libsched.a(os_start.o)
 .bss.g_inactivetasks
                0x0000000020000530        0x8 NuttX/nuttx/sched/libsched.a(os_start.o)
                0x0000000020000530                g_inactivetasks
 .bss.g_lastpid
                0x0000000020000538        0x2 NuttX/nuttx/sched/libsched.a(os_start.o)
                0x0000000020000538                g_lastpid
 .bss.g_os_initstate
                0x000000002000053a        0x1 NuttX/nuttx/sched/libsched.a(os_start.o)
                0x000000002000053a                g_os_initstate
 *fill*         0x000000002000053b        0x1 
 .bss.g_pendingtasks
                0x000000002000053c        0x8 NuttX/nuttx/sched/libsched.a(os_start.o)
                0x000000002000053c                g_pendingtasks
 .bss.g_pidhash
                0x0000000020000544       0x10 NuttX/nuttx/sched/libsched.a(os_start.o)
                0x0000000020000544                g_pidhash
 .bss.g_readytorun
                0x0000000020000554        0x8 NuttX/nuttx/sched/libsched.a(os_start.o)
                0x0000000020000554                g_readytorun
 .bss.g_waitingforsemaphore
                0x000000002000055c        0x8 NuttX/nuttx/sched/libsched.a(os_start.o)
                0x000000002000055c                g_waitingforsemaphore
 .bss.g_irqvector
                0x0000000020000564      0x134 NuttX/nuttx/sched/libsched.a(irq_initialize.o)
                0x0000000020000564                g_irqvector
 .bss.g_wdactivelist
                0x0000000020000698        0x8 NuttX/nuttx/sched/libsched.a(wd_initialize.o)
                0x0000000020000698                g_wdactivelist
 .bss.g_wdfreelist
                0x00000000200006a0        0x8 NuttX/nuttx/sched/libsched.a(wd_initialize.o)
                0x00000000200006a0                g_wdfreelist
 .bss.g_wdnfree
                0x00000000200006a8        0x2 NuttX/nuttx/sched/libsched.a(wd_initialize.o)
                0x00000000200006a8                g_wdnfree
 *fill*         0x00000000200006aa        0x2 
 .bss.g_wdpool  0x00000000200006ac       0x90 NuttX/nuttx/sched/libsched.a(wd_initialize.o)
 .bss.g_syslog_dev
                0x000000002000073c       0x1c NuttX/nuttx/drivers/libdrivers.a(syslog_device.o)
 .bss.brightness_counter.7241
                0x0000000020000758        0x4 src/modules/px4iofirmware/libpx4iofirmware.a(px4io.c.obj)
 .bss.counter.7239
                0x000000002000075c        0x4 src/modules/px4iofirmware/libpx4iofirmware.a(px4io.c.obj)
 .bss.dt        0x0000000020000760        0x4 src/modules/px4iofirmware/libpx4iofirmware.a(px4io.c.obj)
                0x0000000020000760                dt
 .bss.heartbeat.7234
                0x0000000020000764        0x1 src/modules/px4iofirmware/libpx4iofirmware.a(px4io.c.obj)
 *fill*         0x0000000020000765        0x3 
 .bss.last_mem_time.7228
                0x0000000020000768        0x8 src/modules/px4iofirmware/libpx4iofirmware.a(px4io.c.obj)
 .bss.last_msg_counter
                0x0000000020000770        0x4 src/modules/px4iofirmware/libpx4iofirmware.a(px4io.c.obj)
 .bss.msg       0x0000000020000774       0x28 src/modules/px4iofirmware/libpx4iofirmware.a(px4io.c.obj)
 .bss.msg_counter
                0x000000002000079c        0x4 src/modules/px4iofirmware/libpx4iofirmware.a(px4io.c.obj)
 .bss.msg_next_in
                0x00000000200007a0        0x1 src/modules/px4iofirmware/libpx4iofirmware.a(px4io.c.obj)
 .bss.msg_next_out
                0x00000000200007a1        0x1 src/modules/px4iofirmware/libpx4iofirmware.a(px4io.c.obj)
 *fill*         0x00000000200007a2        0x2 
 .bss.on_counter.7242
                0x00000000200007a4        0x4 src/modules/px4iofirmware/libpx4iofirmware.a(px4io.c.obj)
 .bss.pwm_limit
                0x00000000200007a8       0x10 src/modules/px4iofirmware/libpx4iofirmware.a(px4io.c.obj)
                0x00000000200007a8                pwm_limit
 .bss.reboot_time
                0x00000000200007b8        0x8 src/modules/px4iofirmware/libpx4iofirmware.a(px4io.c.obj)
 .bss.serial_dma_call
                0x00000000200007c0       0x20 src/modules/px4iofirmware/libpx4iofirmware.a(px4io.c.obj)
 .bss.system_state
                0x00000000200007e0       0x18 src/modules/px4iofirmware/libpx4iofirmware.a(px4io.c.obj)
                0x00000000200007e0                system_state
 .bss.last_offset
                0x00000000200007f8        0x1 src/modules/px4iofirmware/libpx4iofirmware.a(registers.c.obj)
                0x00000000200007f8                last_offset
 .bss.last_page
                0x00000000200007f9        0x1 src/modules/px4iofirmware/libpx4iofirmware.a(registers.c.obj)
                0x00000000200007f9                last_page
 .bss.r_page_actuators
                0x00000000200007fa       0x10 src/modules/px4iofirmware/libpx4iofirmware.a(registers.c.obj)
                0x00000000200007fa                r_page_actuators
 .bss.r_page_controls
                0x000000002000080a       0x40 src/modules/px4iofirmware/libpx4iofirmware.a(registers.c.obj)
                0x000000002000080a                r_page_controls
 .bss.r_page_direct_pwm
                0x000000002000084a       0x10 src/modules/px4iofirmware/libpx4iofirmware.a(registers.c.obj)
                0x000000002000084a                r_page_direct_pwm
 .bss.r_page_raw_rc_input
                0x000000002000085a       0x32 src/modules/px4iofirmware/libpx4iofirmware.a(registers.c.obj)
                0x000000002000085a                r_page_raw_rc_input
 .bss.r_page_rc_input
                0x000000002000088c       0x14 src/modules/px4iofirmware/libpx4iofirmware.a(registers.c.obj)
                0x000000002000088c                r_page_rc_input
 .bss.r_page_rc_input_config
                0x00000000200008a0       0xd8 src/modules/px4iofirmware/libpx4iofirmware.a(registers.c.obj)
                0x00000000200008a0                r_page_rc_input_config
 .bss.r_page_scratch
                0x0000000020000978       0x40 src/modules/px4iofirmware/libpx4iofirmware.a(registers.c.obj)
                0x0000000020000978                r_page_scratch
 .bss.r_page_servo_control_trim
                0x00000000200009b8       0x10 src/modules/px4iofirmware/libpx4iofirmware.a(registers.c.obj)
                0x00000000200009b8                r_page_servo_control_trim
 .bss.r_page_servo_disarmed
                0x00000000200009c8       0x10 src/modules/px4iofirmware/libpx4iofirmware.a(registers.c.obj)
                0x00000000200009c8                r_page_servo_disarmed
 .bss.r_page_servo_failsafe
                0x00000000200009d8       0x10 src/modules/px4iofirmware/libpx4iofirmware.a(registers.c.obj)
                0x00000000200009d8                r_page_servo_failsafe
 .bss.r_page_servos
                0x00000000200009e8       0x10 src/modules/px4iofirmware/libpx4iofirmware.a(registers.c.obj)
                0x00000000200009e8                r_page_servos
 .bss.r_page_status
                0x00000000200009f8       0x14 src/modules/px4iofirmware/libpx4iofirmware.a(registers.c.obj)
                0x00000000200009f8                r_page_status
 .bss.update_mc_thrust_param
                0x0000000020000a0c        0x1 src/modules/px4iofirmware/libpx4iofirmware.a(registers.c.obj)
                0x0000000020000a0c                update_mc_thrust_param
 *fill*         0x0000000020000a0d        0x3 
 .bss.arming_call
                0x0000000020000a10       0x20 src/modules/px4iofirmware/libpx4iofirmware.a(safety.c.obj)
 .bss.blink_counter
                0x0000000020000a30        0x4 src/modules/px4iofirmware/libpx4iofirmware.a(safety.c.obj)
 .bss.counter   0x0000000020000a34        0x4 src/modules/px4iofirmware/libpx4iofirmware.a(safety.c.obj)
 .bss.failsafe.6676
                0x0000000020000a38        0x1 src/modules/px4iofirmware/libpx4iofirmware.a(safety.c.obj)
 *fill*         0x0000000020000a39        0x7 
 .bss.failsafe_call
                0x0000000020000a40       0x20 src/modules/px4iofirmware/libpx4iofirmware.a(safety.c.obj)
 .bss.abort_on_idle.7195
                0x0000000020000a60        0x1 src/modules/px4iofirmware/libpx4iofirmware.a(serial.c.obj)
 .bss.dma_packet
                0x0000000020000a61       0x44 src/modules/px4iofirmware/libpx4iofirmware.a(serial.c.obj)
 *fill*         0x0000000020000aa5        0x3 
 .bss.pc_badidle
                0x0000000020000aa8        0x4 src/modules/px4iofirmware/libpx4iofirmware.a(serial.c.obj)
 .bss.pc_crcerr
                0x0000000020000aac        0x4 src/modules/px4iofirmware/libpx4iofirmware.a(serial.c.obj)
 .bss.pc_errors
                0x0000000020000ab0        0x4 src/modules/px4iofirmware/libpx4iofirmware.a(serial.c.obj)
 .bss.pc_fe     0x0000000020000ab4        0x4 src/modules/px4iofirmware/libpx4iofirmware.a(serial.c.obj)
 .bss.pc_idle   0x0000000020000ab8        0x4 src/modules/px4iofirmware/libpx4iofirmware.a(serial.c.obj)
 .bss.pc_ne     0x0000000020000abc        0x4 src/modules/px4iofirmware/libpx4iofirmware.a(serial.c.obj)
 .bss.pc_ore    0x0000000020000ac0        0x4 src/modules/px4iofirmware/libpx4iofirmware.a(serial.c.obj)
 .bss.pc_regerr
                0x0000000020000ac4        0x4 src/modules/px4iofirmware/libpx4iofirmware.a(serial.c.obj)
 .bss.pc_txns   0x0000000020000ac8        0x4 src/modules/px4iofirmware/libpx4iofirmware.a(serial.c.obj)
 .bss.rx_dma    0x0000000020000acc        0x4 src/modules/px4iofirmware/libpx4iofirmware.a(serial.c.obj)
 .bss.tx_dma    0x0000000020000ad0        0x4 src/modules/px4iofirmware/libpx4iofirmware.a(serial.c.obj)
 .bss.adc_perf  0x0000000020000ad4        0x4 src/modules/px4iofirmware/libpx4iofirmware.a(adc.c.obj)
                0x0000000020000ad4                adc_perf
 .bss._rssi_adc_counts
                0x0000000020000ad8        0x4 src/modules/px4iofirmware/libpx4iofirmware.a(controls.c.obj)
 .bss.c_gather_dsm
                0x0000000020000adc        0x4 src/modules/px4iofirmware/libpx4iofirmware.a(controls.c.obj)
 .bss.c_gather_ppm
                0x0000000020000ae0        0x4 src/modules/px4iofirmware/libpx4iofirmware.a(controls.c.obj)
 .bss.c_gather_sbus
                0x0000000020000ae4        0x4 src/modules/px4iofirmware/libpx4iofirmware.a(controls.c.obj)
 .bss.rc_value_override
                0x0000000020000ae8        0x2 src/modules/px4iofirmware/libpx4iofirmware.a(controls.c.obj)
 .bss._ZL10mixer_text
                0x0000000020000aea       0xe6 src/modules/px4iofirmware/libpx4iofirmware.a(mixer.cpp.obj)
 .bss._ZL10should_arm
                0x0000000020000bd0        0x1 src/modules/px4iofirmware/libpx4iofirmware.a(mixer.cpp.obj)
 *fill*         0x0000000020000bd1        0x3 
 .bss._ZL11mixer_group
                0x0000000020000bd4       0x14 src/modules/px4iofirmware/libpx4iofirmware.a(mixer.cpp.obj)
 .bss._ZL12new_fmu_data
                0x0000000020000be8        0x1 src/modules/px4iofirmware/libpx4iofirmware.a(mixer.cpp.obj)
 *fill*         0x0000000020000be9        0x7 
 .bss._ZL15last_fmu_update
                0x0000000020000bf0        0x8 src/modules/px4iofirmware/libpx4iofirmware.a(mixer.cpp.obj)
 .bss._ZL17mixer_text_length
                0x0000000020000bf8        0x4 src/modules/px4iofirmware/libpx4iofirmware.a(mixer.cpp.obj)
 .bss._ZL18mixer_servos_armed
                0x0000000020000bfc        0x1 src/modules/px4iofirmware/libpx4iofirmware.a(mixer.cpp.obj)
 .bss._ZL20mixer_update_pending
                0x0000000020000bfd        0x1 src/modules/px4iofirmware/libpx4iofirmware.a(mixer.cpp.obj)
 .bss._ZL21should_arm_nothrottle
                0x0000000020000bfe        0x1 src/modules/px4iofirmware/libpx4iofirmware.a(mixer.cpp.obj)
 .bss._ZL24should_always_enable_pwm
                0x0000000020000bff        0x1 src/modules/px4iofirmware/libpx4iofirmware.a(mixer.cpp.obj)
 .bss._ZL6source
                0x0000000020000c00        0x1 src/modules/px4iofirmware/libpx4iofirmware.a(mixer.cpp.obj)
 .bss._ZL8in_mixer
                0x0000000020000c01        0x1 src/modules/px4iofirmware/libpx4iofirmware.a(mixer.cpp.obj)
 *fill*         0x0000000020000c02        0x6 
 .bss.base_time.6719
                0x0000000020000c08        0x8 src/drivers/stm32/libdrivers_arch.a(drv_hrt.c.obj)
 .bss.callout_queue
                0x0000000020000c10        0x8 src/drivers/stm32/libdrivers_arch.a(drv_hrt.c.obj)
 .bss.last_count.6720
                0x0000000020000c18        0x4 src/drivers/stm32/libdrivers_arch.a(drv_hrt.c.obj)
 .bss.latency_actual
                0x0000000020000c1c        0x2 src/drivers/stm32/libdrivers_arch.a(drv_hrt.c.obj)
 .bss.latency_baseline
                0x0000000020000c1e        0x2 src/drivers/stm32/libdrivers_arch.a(drv_hrt.c.obj)
 .bss.latency_counters
                0x0000000020000c20       0x24 src/drivers/stm32/libdrivers_arch.a(drv_hrt.c.obj)
                0x0000000020000c20                latency_counters
 .bss.new_channel_count.6697
                0x0000000020000c44        0x4 src/drivers/stm32/libdrivers_arch.a(drv_hrt.c.obj)
 .bss.new_channel_holdoff.6698
                0x0000000020000c48        0x4 src/drivers/stm32/libdrivers_arch.a(drv_hrt.c.obj)
 .bss.ppm       0x0000000020000c4c       0x10 src/drivers/stm32/libdrivers_arch.a(drv_hrt.c.obj)
                0x0000000020000c4c                ppm
 .bss.ppm_buffer
                0x0000000020000c5c       0x28 src/drivers/stm32/libdrivers_arch.a(drv_hrt.c.obj)
                0x0000000020000c5c                ppm_buffer
 .bss.ppm_decoded_channels
                0x0000000020000c84        0x4 src/drivers/stm32/libdrivers_arch.a(drv_hrt.c.obj)
                0x0000000020000c84                ppm_decoded_channels
 .bss.ppm_frame_length
                0x0000000020000c88        0x2 src/drivers/stm32/libdrivers_arch.a(drv_hrt.c.obj)
                0x0000000020000c88                ppm_frame_length
 *fill*         0x0000000020000c8a        0x6 
 .bss.ppm_last_valid_decode
                0x0000000020000c90        0x8 src/drivers/stm32/libdrivers_arch.a(drv_hrt.c.obj)
                0x0000000020000c90                ppm_last_valid_decode
 .bss.ppm_temp_buffer
                0x0000000020000c98       0x28 src/drivers/stm32/libdrivers_arch.a(drv_hrt.c.obj)
 .bss.channels_cache.7170
                0x0000000020000cc0       0x14 src/drivers/stm32/libdrivers_arch.a(drv_io_timer.c.obj)
 .bss.once      0x0000000020000cd4        0x1 src/drivers/stm32/libdrivers_arch.a(drv_io_timer.c.obj)
 .bss._ZL13_decode_state
                0x0000000020000cd5        0x1 src/lib/rc/librc.a(st24.cpp.obj)
 .bss._ZL6_rxlen
                0x0000000020000cd6        0x1 src/lib/rc/librc.a(st24.cpp.obj)
 .bss._ZL13_decode_state
                0x0000000020000cd7        0x1 src/lib/rc/librc.a(sumd.cpp.obj)
 .bss._ZL6_rxlen
                0x0000000020000cd8        0x1 src/lib/rc/librc.a(sumd.cpp.obj)
 *fill*         0x0000000020000cd9        0x1 
 .bss._crc16    0x0000000020000cda        0x2 src/lib/rc/librc.a(sumd.cpp.obj)
                0x0000000020000cda                _crc16
 .bss._crc8     0x0000000020000cdc        0x1 src/lib/rc/librc.a(sumd.cpp.obj)
                0x0000000020000cdc                _crc8
 .bss._crcOK    0x0000000020000cdd        0x1 src/lib/rc/librc.a(sumd.cpp.obj)
                0x0000000020000cdd                _crcOK
 .bss._debug    0x0000000020000cde        0x1 src/lib/rc/librc.a(sumd.cpp.obj)
                0x0000000020000cde                _debug
 *fill*         0x0000000020000cdf        0x1 
 .bss._ZL16sbus_frame_drops
                0x0000000020000ce0        0x4 src/lib/rc/librc.a(sbus.cpp.obj)
 *fill*         0x0000000020000ce4        0x4 
 .bss._ZL17last_txframe_time
                0x0000000020000ce8        0x8 src/lib/rc/librc.a(sbus.cpp.obj)
 .bss._ZL19partial_frame_count
                0x0000000020000cf0        0x4 src/lib/rc/librc.a(sbus.cpp.obj)
 .bss._ZL12dsm_chan_buf
                0x0000000020000cf4       0x24 src/lib/rc/librc.a(dsm.cpp.obj)
 .bss._ZL14dsm_chan_count
                0x0000000020000d18        0x2 src/lib/rc/librc.a(dsm.cpp.obj)
 *fill*         0x0000000020000d1a        0x2 
 .bss._ZL15dsm_frame_drops
                0x0000000020000d1c        0x4 src/lib/rc/librc.a(dsm.cpp.obj)
 .bss._ZL16dsm_decode_state
                0x0000000020000d20        0x1 src/lib/rc/librc.a(dsm.cpp.obj)
 *fill*         0x0000000020000d21        0x7 
 .bss._ZL16dsm_last_rx_time
                0x0000000020000d28        0x8 src/lib/rc/librc.a(dsm.cpp.obj)
 .bss._ZL17dsm_channel_shift
                0x0000000020000d30        0x4 src/lib/rc/librc.a(dsm.cpp.obj)
 *fill*         0x0000000020000d34        0x4 
 .bss._ZL19dsm_last_frame_time
                0x0000000020000d38        0x8 src/lib/rc/librc.a(dsm.cpp.obj)
 .bss._ZL23dsm_partial_frame_count
                0x0000000020000d40        0x4 src/lib/rc/librc.a(dsm.cpp.obj)
 .bss._ZZL16dsm_guess_formatbE4cs10
                0x0000000020000d44        0x4 src/lib/rc/librc.a(dsm.cpp.obj)
 .bss._ZZL16dsm_guess_formatbE4cs11
                0x0000000020000d48        0x4 src/lib/rc/librc.a(dsm.cpp.obj)
 .bss._ZZL16dsm_guess_formatbE7samples
                0x0000000020000d4c        0x4 src/lib/rc/librc.a(dsm.cpp.obj)
 .bss.rc_decode_buf
                0x0000000020000d50       0x47 src/lib/rc/librc.a(common_rc.cpp.obj)
                0x0000000020000d50                rc_decode_buf
 *fill*         0x0000000020000d97        0x1 
 .bss.__dso_handle
                0x0000000020000d98        0x4 NuttX/nuttx/libxx/libcxx.a(libxx_cxa_atexit.o)
                0x0000000020000d98                __dso_handle
 *(.gnu.linkonce.b.*)
 *(COMMON)
                0x0000000020000d9c                . = ALIGN (0x4)
                0x0000000020000d9c                _ebss = ABSOLUTE (.)

.stab
 *(.stab)

.stabstr
 *(.stabstr)

.stab.excl
 *(.stab.excl)

.stab.exclstr
 *(.stab.exclstr)

.stab.index
 *(.stab.index)

.stab.indexstr
 *(.stab.indexstr)

.comment        0x0000000000000000       0x7e
 *(.comment)
 .comment       0x0000000000000000       0x7e NuttX/nuttx/arch/arm/src/libarch.a(stm32_start.o)
                                         0x7f (size before relaxing)
 .comment       0x000000000000007e       0x7f NuttX/nuttx/arch/arm/src/libarch.a(stm32_rcc.o)
 .comment       0x000000000000007e       0x7f NuttX/nuttx/arch/arm/src/libarch.a(stm32_gpio.o)
 .comment       0x000000000000007e       0x7f NuttX/nuttx/arch/arm/src/libarch.a(stm32_lowputc.o)
 .comment       0x000000000000007e       0x7f NuttX/nuttx/arch/arm/src/libarch.a(stm32_serial.o)
 .comment       0x000000000000007e       0x7f NuttX/nuttx/arch/arm/src/libarch.a(up_modifyreg32.o)
 .comment       0x000000000000007e       0x7f NuttX/nuttx/arch/arm/src/libarch.a(up_vectors.o)
 .comment       0x000000000000007e       0x7f NuttX/nuttx/arch/arm/src/libarch.a(stm32_irq.o)
 .comment       0x000000000000007e       0x7f NuttX/nuttx/arch/arm/src/libarch.a(stm32_dma.o)
 .comment       0x000000000000007e       0x7f NuttX/nuttx/arch/arm/src/libarch.a(up_assert.o)
 .comment       0x000000000000007e       0x7f NuttX/nuttx/arch/arm/src/libarch.a(up_doirq.o)
 .comment       0x000000000000007e       0x7f NuttX/nuttx/arch/arm/src/libarch.a(up_hardfault.o)
 .comment       0x000000000000007e       0x7f NuttX/nuttx/arch/arm/src/libarch.a(up_svcall.o)
 .comment       0x000000000000007e       0x7f NuttX/nuttx/arch/arm/src/libarch.a(up_checkstack.o)
 .comment       0x000000000000007e       0x7f NuttX/nuttx/libc/libc.a(sem_init.o)
 .comment       0x000000000000007e       0x7f NuttX/nuttx/libc/libc.a(lib_abort.o)
 .comment       0x000000000000007e       0x7f NuttX/nuttx/libc/libc.a(lib_strcpy.o)
 .comment       0x000000000000007e       0x7f NuttX/nuttx/libc/libc.a(lib_syslog.o)
 .comment       0x000000000000007e       0x7f NuttX/nuttx/libc/libc.a(lib_setlogmask.o)
 .comment       0x000000000000007e       0x7f NuttX/nuttx/libc/libc.a(lib_cfgetspeed.o)
 .comment       0x000000000000007e       0x7f NuttX/nuttx/libc/libc.a(lib_cfsetspeed.o)
 .comment       0x000000000000007e       0x7f NuttX/nuttx/drivers/libdrivers.a(serial.o)
 .comment       0x000000000000007e       0x7f NuttX/nuttx/drivers/libdrivers.a(serial_io.o)
 .comment       0x000000000000007e       0x7f NuttX/nuttx/drivers/libdrivers.a(vsyslog.o)
 .comment       0x000000000000007e       0x7f NuttX/nuttx/drivers/libdrivers.a(syslog_stream.o)
 .comment       0x000000000000007e       0x7f NuttX/nuttx/drivers/libdrivers.a(syslog_emergstream.o)
 .comment       0x000000000000007e       0x7f NuttX/nuttx/drivers/libdrivers.a(syslog_putc.o)
 .comment       0x000000000000007e       0x7f NuttX/nuttx/drivers/libdrivers.a(syslog_force.o)
 .comment       0x000000000000007e       0x7f NuttX/nuttx/drivers/libdrivers.a(syslog_channel.o)
 .comment       0x000000000000007e       0x7f NuttX/nuttx/fs/libfs.a(fs_registerdriver.o)
 .comment       0x000000000000007e       0x7f NuttX/nuttx/fs/libfs.a(fs_inode.o)
 .comment       0x000000000000007e       0x7f NuttX/nuttx/fs/libfs.a(fs_inodereserve.o)
 .comment       0x000000000000007e       0x7f NuttX/nuttx/fs/libfs.a(fs_inodesearch.o)
 .comment       0x000000000000007e       0x7f NuttX/nuttx/mm/libmm.a(umm_zalloc.o)
 .comment       0x000000000000007e       0x7f NuttX/nuttx/mm/libmm.a(umm_globals.o)
 .comment       0x000000000000007e       0x7f NuttX/nuttx/mm/libmm.a(mm_zalloc.o)
 .comment       0x000000000000007e       0x7f NuttX/nuttx/mm/libmm.a(mm_malloc.o)
 .comment       0x000000000000007e       0x7f NuttX/nuttx/mm/libmm.a(mm_sem.o)
 .comment       0x000000000000007e       0x7f NuttX/nuttx/mm/libmm.a(mm_addfreechunk.o)
 .comment       0x000000000000007e       0x7f NuttX/nuttx/mm/libmm.a(mm_size2ndx.o)
 .comment       0x000000000000007e       0x7f NuttX/nuttx/sched/libsched.a(errno_getptr.o)
 .comment       0x000000000000007e       0x7f NuttX/nuttx/sched/libsched.a(os_start.o)
 .comment       0x000000000000007e       0x7f NuttX/nuttx/sched/libsched.a(os_bringup.o)
 .comment       0x000000000000007e       0x7f NuttX/nuttx/sched/libsched.a(irq_attach.o)
 .comment       0x000000000000007e       0x7f NuttX/nuttx/sched/libsched.a(irq_dispatch.o)
 .comment       0x000000000000007e       0x7f NuttX/nuttx/sched/libsched.a(irq_unexpectedisr.o)
 .comment       0x000000000000007e       0x7f NuttX/nuttx/sched/libsched.a(sched_garbage.o)
 .comment       0x000000000000007e       0x7f NuttX/nuttx/sched/libsched.a(sched_foreach.o)
 .comment       0x000000000000007e       0x7f NuttX/nuttx/sched/libsched.a(sched_idletask.o)
 .comment       0x000000000000007e       0x7f NuttX/nuttx/sched/libsched.a(sem_wait.o)
 .comment       0x000000000000007e       0x7f NuttX/nuttx/sched/libsched.a(sem_trywait.o)
 .comment       0x000000000000007e       0x7f NuttX/nuttx/sched/libsched.a(sem_post.o)
 .comment       0x000000000000007e       0x7f NuttX/nuttx/sched/libsched.a(sem_reset.o)
 .comment       0x000000000000007e       0x7f NuttX/nuttx/sched/libsched.a(task_create.o)
 .comment       0x000000000000007e       0x7f NuttX/nuttx/sched/libsched.a(task_setup.o)
 .comment       0x000000000000007e       0x7f NuttX/nuttx/sched/libsched.a(task_activate.o)
 .comment       0x000000000000007e       0x7f NuttX/nuttx/sched/libsched.a(task_start.o)
 .comment       0x000000000000007e       0x7f NuttX/nuttx/sched/libsched.a(task_getpid.o)
 .comment       0x000000000000007e       0x7f NuttX/nuttx/sched/libsched.a(exit.o)
 .comment       0x000000000000007e       0x7f NuttX/nuttx/sched/libsched.a(group_create.o)
 .comment       0x000000000000007e       0x7f NuttX/nuttx/sched/libsched.a(group_setupidlefiles.o)
 .comment       0x000000000000007e       0x7f NuttX/nuttx/sched/libsched.a(group_setuptaskfiles.o)
 .comment       0x000000000000007e       0x7f NuttX/nuttx/sched/libsched.a(irq_initialize.o)
 .comment       0x000000000000007e       0x7f NuttX/nuttx/sched/libsched.a(sched_releasetcb.o)
 .comment       0x000000000000007e       0x7f NuttX/nuttx/sched/libsched.a(sched_lock.o)
 .comment       0x000000000000007e       0x7f NuttX/nuttx/sched/libsched.a(sched_unlock.o)
 .comment       0x000000000000007e       0x7f NuttX/nuttx/sched/libsched.a(task_exithook.o)
 .comment       0x000000000000007e       0x7f NuttX/nuttx/sched/libsched.a(task_recover.o)
 .comment       0x000000000000007e       0x7f NuttX/nuttx/sched/libsched.a(wd_recover.o)
 .comment       0x000000000000007e       0x7f NuttX/nuttx/sched/libsched.a(group_leave.o)
 .comment       0x000000000000007e       0x7f NuttX/nuttx/sched/libsched.a(sched_free.o)
 .comment       0x000000000000007e       0x7f NuttX/nuttx/sched/libsched.a(sem_recover.o)
 .comment       0x000000000000007e       0x7f NuttX/nuttx/sched/libsched.a(wd_cancel.o)
 .comment       0x000000000000007e       0x7f NuttX/nuttx/sched/libsched.a(wd_delete.o)
 .comment       0x000000000000007e       0x7f NuttX/nuttx/sched/libsched.a(wd_initialize.o)
 .comment       0x000000000000007e       0x7f NuttX/nuttx/arch/arm/src/libarch.a(stm32_allocateheap.o)
 .comment       0x000000000000007e       0x7f NuttX/nuttx/arch/arm/src/libarch.a(stm32_idle.o)
 .comment       0x000000000000007e       0x7f NuttX/nuttx/arch/arm/src/libarch.a(up_blocktask.o)
 .comment       0x000000000000007e       0x7f NuttX/nuttx/arch/arm/src/libarch.a(up_copyfullstate.o)
 .comment       0x000000000000007e       0x7f NuttX/nuttx/arch/arm/src/libarch.a(up_createstack.o)
 .comment       0x000000000000007e       0x7f NuttX/nuttx/arch/arm/src/libarch.a(up_mdelay.o)
 .comment       0x000000000000007e       0x7f NuttX/nuttx/arch/arm/src/libarch.a(up_exit.o)
 .comment       0x000000000000007e       0x7f NuttX/nuttx/arch/arm/src/libarch.a(up_initialize.o)
 .comment       0x000000000000007e       0x7f NuttX/nuttx/arch/arm/src/libarch.a(up_initialstate.o)
 .comment       0x000000000000007e       0x7f NuttX/nuttx/arch/arm/src/libarch.a(up_interruptcontext.o)
 .comment       0x000000000000007e       0x7f NuttX/nuttx/arch/arm/src/libarch.a(up_releasepending.o)
 .comment       0x000000000000007e       0x7f NuttX/nuttx/arch/arm/src/libarch.a(up_releasestack.o)
 .comment       0x000000000000007e       0x7f NuttX/nuttx/arch/arm/src/libarch.a(up_stackframe.o)
 .comment       0x000000000000007e       0x7f NuttX/nuttx/arch/arm/src/libarch.a(up_unblocktask.o)
 .comment       0x000000000000007e       0x7f NuttX/nuttx/arch/arm/src/libarch.a(stm32_timerisr.o)
 .comment       0x000000000000007e       0x7f NuttX/nuttx/libc/libc.a(sq_addlast.o)
 .comment       0x000000000000007e       0x7f NuttX/nuttx/libc/libc.a(sq_remfirst.o)
 .comment       0x000000000000007e       0x7f NuttX/nuttx/libc/libc.a(sq_remafter.o)
 .comment       0x000000000000007e       0x7f NuttX/nuttx/libc/libc.a(dq_addfirst.o)
 .comment       0x000000000000007e       0x7f NuttX/nuttx/libc/libc.a(dq_rem.o)
 .comment       0x000000000000007e       0x7f NuttX/nuttx/libc/libc.a(sem_setprotocol.o)
 .comment       0x000000000000007e       0x7f NuttX/nuttx/libc/libc.a(lib_libvsprintf.o)
 .comment       0x000000000000007e       0x7f NuttX/nuttx/libc/libc.a(lib_nulloutstream.o)
 .comment       0x000000000000007e       0x7f NuttX/nuttx/libc/libc.a(lib_libnoflush.o)
 .comment       0x000000000000007e       0x7f NuttX/nuttx/libc/libc.a(lib_memset.o)
 .comment       0x000000000000007e       0x7f NuttX/nuttx/libc/libc.a(lib_strchr.o)
 .comment       0x000000000000007e       0x7f NuttX/nuttx/libc/libc.a(lib_strlen.o)
 .comment       0x000000000000007e       0x7f NuttX/nuttx/libc/libc.a(lib_strnlen.o)
 .comment       0x000000000000007e       0x7f NuttX/nuttx/libc/libc.a(lib_strncpy.o)
 .comment       0x000000000000007e       0x7f NuttX/nuttx/drivers/libdrivers.a(syslog_initialize.o)
 .comment       0x000000000000007e       0x7f NuttX/nuttx/drivers/libdrivers.a(syslog_consolechannel.o)
 .comment       0x000000000000007e       0x7f NuttX/nuttx/drivers/libdrivers.a(syslog_device.o)
 .comment       0x000000000000007e       0x7f NuttX/nuttx/fs/libfs.a(fs_initialize.o)
 .comment       0x000000000000007e       0x7f NuttX/nuttx/fs/libfs.a(fs_files.o)
 .comment       0x000000000000007e       0x7f NuttX/nuttx/fs/libfs.a(fs_inodeaddref.o)
 .comment       0x000000000000007e       0x7f NuttX/nuttx/fs/libfs.a(fs_inoderelease.o)
 .comment       0x000000000000007e       0x7f NuttX/nuttx/fs/libfs.a(fs_filedetach.o)
 .comment       0x000000000000007e       0x7f NuttX/nuttx/fs/libfs.a(fs_close.o)
 .comment       0x000000000000007e       0x7f NuttX/nuttx/fs/libfs.a(fs_dupfd2.o)
 .comment       0x000000000000007e       0x7f NuttX/nuttx/fs/libfs.a(fs_getfilep.o)
 .comment       0x000000000000007e       0x7f NuttX/nuttx/fs/libfs.a(fs_open.o)
 .comment       0x000000000000007e       0x7f NuttX/nuttx/fs/libfs.a(fs_write.o)
 .comment       0x000000000000007e       0x7f NuttX/nuttx/fs/libfs.a(fs_inodefind.o)
 .comment       0x000000000000007e       0x7f NuttX/nuttx/fs/libfs.a(fs_inodefree.o)
 .comment       0x000000000000007e       0x7f NuttX/nuttx/mm/libmm.a(umm_initialize.o)
 .comment       0x000000000000007e       0x7f NuttX/nuttx/mm/libmm.a(umm_sem.o)
 .comment       0x000000000000007e       0x7f NuttX/nuttx/mm/libmm.a(umm_free.o)
 .comment       0x000000000000007e       0x7f NuttX/nuttx/mm/libmm.a(umm_malloc.o)
 .comment       0x000000000000007e       0x7f NuttX/nuttx/mm/libmm.a(mm_initialize.o)
 .comment       0x000000000000007e       0x7f NuttX/nuttx/mm/libmm.a(mm_free.o)
 .comment       0x000000000000007e       0x7f NuttX/nuttx/sched/libsched.a(sched_getfiles.o)
 .comment       0x000000000000007e       0x7f NuttX/nuttx/sched/libsched.a(sched_addreadytorun.o)
 .comment       0x000000000000007e       0x7f NuttX/nuttx/sched/libsched.a(sched_removereadytorun.o)
 .comment       0x000000000000007e       0x7f NuttX/nuttx/sched/libsched.a(sched_addprioritized.o)
 .comment       0x000000000000007e       0x7f NuttX/nuttx/sched/libsched.a(sched_mergepending.o)
 .comment       0x000000000000007e       0x7f NuttX/nuttx/sched/libsched.a(sched_addblocked.o)
 .comment       0x000000000000007e       0x7f NuttX/nuttx/sched/libsched.a(sched_removeblocked.o)
 .comment       0x000000000000007e       0x7f NuttX/nuttx/sched/libsched.a(sched_processtimer.o)
 .comment       0x000000000000007e       0x7f NuttX/nuttx/sched/libsched.a(sem_destroy.o)
 .comment       0x000000000000007e       0x7f NuttX/nuttx/sched/libsched.a(task_exit.o)
 .comment       0x000000000000007e       0x7f NuttX/nuttx/sched/libsched.a(task_terminate.o)
 .comment       0x000000000000007e       0x7f NuttX/nuttx/sched/libsched.a(wd_start.o)
 .comment       0x000000000000007e       0x7f NuttX/nuttx/sched/libsched.a(sched_gettcb.o)
 .comment       0x000000000000007e       0x7f NuttX/nuttx/libc/libc.a(sq_addfirst.o)
 .comment       0x000000000000007e       0x7f NuttX/nuttx/libc/libc.a(sq_addafter.o)
 .comment       0x000000000000007e       0x7f NuttX/nuttx/libc/libc.a(dq_addlast.o)
 .comment       0x000000000000007e       0x7f NuttX/nuttx/libc/libc.a(lib_strdup.o)
 .comment       0x000000000000007e       0x7f src/modules/px4iofirmware/libpx4iofirmware.a(px4io.c.obj)
 .comment       0x000000000000007e       0x7f src/modules/px4iofirmware/libpx4iofirmware.a(registers.c.obj)
 .comment       0x000000000000007e       0x7f src/modules/px4iofirmware/libpx4iofirmware.a(safety.c.obj)
 .comment       0x000000000000007e       0x7f src/modules/px4iofirmware/libpx4iofirmware.a(serial.c.obj)
 .comment       0x000000000000007e       0x7f src/modules/px4iofirmware/libpx4iofirmware.a(pwm_limit.c.obj)
 .comment       0x000000000000007e       0x7f src/modules/px4iofirmware/libpx4iofirmware.a(adc.c.obj)
 .comment       0x000000000000007e       0x7f src/modules/px4iofirmware/libpx4iofirmware.a(controls.c.obj)
 .comment       0x000000000000007e       0x7f src/modules/px4iofirmware/libpx4iofirmware.a(mixer.cpp.obj)
 .comment       0x000000000000007e       0x7f NuttX/apps/libapps.a(gnu_cxxinitialize.o)
 .comment       0x000000000000007e       0x7f NuttX/nuttx/arch/arm/src/libarch.a(up_udelay.o)
 .comment       0x000000000000007e       0x7f NuttX/nuttx/arch/arm/src/libarch.a(up_systemreset.o)
 .comment       0x000000000000007e       0x7f src/drivers/boards/px4io-v2/libdrivers_board.a(init.c.obj)
 .comment       0x000000000000007e       0x7f src/drivers/stm32/libdrivers_arch.a(drv_hrt.c.obj)
 .comment       0x000000000000007e       0x7f src/drivers/stm32/libdrivers_arch.a(drv_pwm_servo.c.obj)
 .comment       0x000000000000007e       0x7f src/drivers/stm32/libdrivers_arch.a(drv_io_timer.c.obj)
 .comment       0x000000000000007e       0x7f src/drivers/boards/px4io-v2/libdrivers_board.a(timer_config.c.obj)
 .comment       0x000000000000007e       0x7f src/lib/mixer/libmixer.a(mixer_group.cpp.obj)
 .comment       0x000000000000007e       0x7f src/lib/mixer/libmixer.a(mixer_helicopter.cpp.obj)
 .comment       0x000000000000007e       0x7f src/lib/mixer/libmixer.a(mixer_multirotor.cpp.obj)
 .comment       0x000000000000007e       0x7f src/lib/mixer/libmixer.a(mixer_simple.cpp.obj)
 .comment       0x000000000000007e       0x7f src/lib/mixer/libmixer.a(mixer.cpp.obj)
 .comment       0x000000000000007e       0x7f src/lib/rc/librc.a(st24.cpp.obj)
 .comment       0x000000000000007e       0x7f src/lib/rc/librc.a(sumd.cpp.obj)
 .comment       0x000000000000007e       0x7f src/lib/rc/librc.a(sbus.cpp.obj)
 .comment       0x000000000000007e       0x7f src/lib/rc/librc.a(dsm.cpp.obj)
 .comment       0x000000000000007e       0x7f src/lib/rc/librc.a(common_rc.cpp.obj)
 .comment       0x000000000000007e       0x7f NuttX/nuttx/libxx/libcxx.a(libxx_cxapurevirtual.o)
 .comment       0x000000000000007e       0x7f NuttX/nuttx/libxx/libcxx.a(libxx_eabi_atexit.o)
 .comment       0x000000000000007e       0x7f NuttX/nuttx/libxx/libcxx.a(libxx_cxa_atexit.o)
 .comment       0x000000000000007e       0x7f NuttX/nuttx/libxx/libcxx.a(libxx_delete.o)
 .comment       0x000000000000007e       0x7f NuttX/nuttx/libxx/libcxx.a(libxx_deletea.o)
 .comment       0x000000000000007e       0x7f NuttX/nuttx/libxx/libcxx.a(libxx_new.o)
 .comment       0x000000000000007e       0x7f NuttX/nuttx/libxx/libcxx.a(libxx_newa.o)
 .comment       0x000000000000007e       0x7f NuttX/nuttx/libc/libc.a(lib_crc32.o)
 .comment       0x000000000000007e       0x7f NuttX/nuttx/libc/libc.a(sq_rem.o)
 .comment       0x000000000000007e       0x7f NuttX/nuttx/libc/libc.a(lib_printf.o)
 .comment       0x000000000000007e       0x7f NuttX/nuttx/libc/libc.a(lib_vsnprintf.o)
 .comment       0x000000000000007e       0x7f NuttX/nuttx/libc/libc.a(lib_memoutstream.o)
 .comment       0x000000000000007e       0x7f NuttX/nuttx/libc/libc.a(lib_sscanf.o)
 .comment       0x000000000000007e       0x7f NuttX/nuttx/libc/libc.a(lib_strtol.o)
 .comment       0x000000000000007e       0x7f NuttX/nuttx/libc/libc.a(lib_strtoul.o)
 .comment       0x000000000000007e       0x7f NuttX/nuttx/libc/libc.a(lib_checkbase.o)
 .comment       0x000000000000007e       0x7f NuttX/nuttx/libc/libc.a(lib_isbasedigit.o)
 .comment       0x000000000000007e       0x7f NuttX/nuttx/libc/libc.a(lib_memchr.o)
 .comment       0x000000000000007e       0x7f NuttX/nuttx/libc/libc.a(lib_memmove.o)
 .comment       0x000000000000007e       0x7f NuttX/nuttx/libc/libc.a(lib_skipspace.o)
 .comment       0x000000000000007e       0x7f NuttX/nuttx/libc/libc.a(lib_strcmp.o)
 .comment       0x000000000000007e       0x7f NuttX/nuttx/libc/libc.a(lib_strcspn.o)
 .comment       0x000000000000007e       0x7f NuttX/nuttx/libc/libc.a(lib_tcgetattr.o)
 .comment       0x000000000000007e       0x7f NuttX/nuttx/libc/libc.a(lib_tcsetattr.o)
 .comment       0x000000000000007e       0x7f NuttX/nuttx/fs/libfs.a(fs_ioctl.o)
 .comment       0x000000000000007e       0x7f NuttX/nuttx/fs/libfs.a(fs_read.o)
 .comment       0x000000000000007e       0x7f NuttX/nuttx/mm/libmm.a(umm_mallinfo.o)
 .comment       0x000000000000007e       0x7f NuttX/nuttx/mm/libmm.a(mm_mallinfo.o)
 .comment       0x000000000000007e       0x7f src/lib/perf/libperf.a(perf_counter.c.obj)

.ARM.attributes
                0x0000000000000000       0x31
 .ARM.attributes
                0x0000000000000000       0x2f NuttX/nuttx/arch/arm/src/libarch.a(stm32_start.o)
 .ARM.attributes
                0x000000000000002f       0x2f NuttX/nuttx/arch/arm/src/libarch.a(stm32_rcc.o)
 .ARM.attributes
                0x000000000000005e       0x2f NuttX/nuttx/arch/arm/src/libarch.a(stm32_gpio.o)
 .ARM.attributes
                0x000000000000008d       0x2f NuttX/nuttx/arch/arm/src/libarch.a(stm32_lowputc.o)
 .ARM.attributes
                0x00000000000000bc       0x2f NuttX/nuttx/arch/arm/src/libarch.a(stm32_serial.o)
 .ARM.attributes
                0x00000000000000eb       0x2f NuttX/nuttx/arch/arm/src/libarch.a(up_modifyreg32.o)
 .ARM.attributes
                0x000000000000011a       0x2f NuttX/nuttx/arch/arm/src/libarch.a(up_vectors.o)
 .ARM.attributes
                0x0000000000000149       0x21 NuttX/nuttx/arch/arm/src/libarch.a(up_exception.o)
 .ARM.attributes
                0x000000000000016a       0x2f NuttX/nuttx/arch/arm/src/libarch.a(stm32_irq.o)
 .ARM.attributes
                0x0000000000000199       0x2f NuttX/nuttx/arch/arm/src/libarch.a(stm32_dma.o)
 .ARM.attributes
                0x00000000000001c8       0x2f NuttX/nuttx/arch/arm/src/libarch.a(up_assert.o)
 .ARM.attributes
                0x00000000000001f7       0x2f NuttX/nuttx/arch/arm/src/libarch.a(up_doirq.o)
 .ARM.attributes
                0x0000000000000226       0x2f NuttX/nuttx/arch/arm/src/libarch.a(up_hardfault.o)
 .ARM.attributes
                0x0000000000000255       0x2f NuttX/nuttx/arch/arm/src/libarch.a(up_svcall.o)
 .ARM.attributes
                0x0000000000000284       0x2f NuttX/nuttx/arch/arm/src/libarch.a(up_checkstack.o)
 .ARM.attributes
                0x00000000000002b3       0x21 NuttX/nuttx/arch/arm/src/libarch.a(stm32_vectors.o)
 .ARM.attributes
                0x00000000000002d4       0x21 NuttX/nuttx/libc/libc.a(arch_memcpy.o)
 .ARM.attributes
                0x00000000000002f5       0x2f NuttX/nuttx/libc/libc.a(sem_init.o)
 .ARM.attributes
                0x0000000000000324       0x2f NuttX/nuttx/libc/libc.a(lib_abort.o)
 .ARM.attributes
                0x0000000000000353       0x2f NuttX/nuttx/libc/libc.a(lib_strcpy.o)
 .ARM.attributes
                0x0000000000000382       0x2f NuttX/nuttx/libc/libc.a(lib_syslog.o)
 .ARM.attributes
                0x00000000000003b1       0x2f NuttX/nuttx/libc/libc.a(lib_setlogmask.o)
 .ARM.attributes
                0x00000000000003e0       0x2f NuttX/nuttx/libc/libc.a(lib_cfgetspeed.o)
 .ARM.attributes
                0x000000000000040f       0x2f NuttX/nuttx/libc/libc.a(lib_cfsetspeed.o)
 .ARM.attributes
                0x000000000000043e       0x2f NuttX/nuttx/drivers/libdrivers.a(serial.o)
 .ARM.attributes
                0x000000000000046d       0x2f NuttX/nuttx/drivers/libdrivers.a(serial_io.o)
 .ARM.attributes
                0x000000000000049c       0x2f NuttX/nuttx/drivers/libdrivers.a(vsyslog.o)
 .ARM.attributes
                0x00000000000004cb       0x2f NuttX/nuttx/drivers/libdrivers.a(syslog_stream.o)
 .ARM.attributes
                0x00000000000004fa       0x2f NuttX/nuttx/drivers/libdrivers.a(syslog_emergstream.o)
 .ARM.attributes
                0x0000000000000529       0x2f NuttX/nuttx/drivers/libdrivers.a(syslog_putc.o)
 .ARM.attributes
                0x0000000000000558       0x2f NuttX/nuttx/drivers/libdrivers.a(syslog_force.o)
 .ARM.attributes
                0x0000000000000587       0x2f NuttX/nuttx/drivers/libdrivers.a(syslog_channel.o)
 .ARM.attributes
                0x00000000000005b6       0x2f NuttX/nuttx/fs/libfs.a(fs_registerdriver.o)
 .ARM.attributes
                0x00000000000005e5       0x2f NuttX/nuttx/fs/libfs.a(fs_inode.o)
 .ARM.attributes
                0x0000000000000614       0x2f NuttX/nuttx/fs/libfs.a(fs_inodereserve.o)
 .ARM.attributes
                0x0000000000000643       0x2f NuttX/nuttx/fs/libfs.a(fs_inodesearch.o)
 .ARM.attributes
                0x0000000000000672       0x2f NuttX/nuttx/mm/libmm.a(umm_zalloc.o)
 .ARM.attributes
                0x00000000000006a1       0x2f NuttX/nuttx/mm/libmm.a(umm_globals.o)
 .ARM.attributes
                0x00000000000006d0       0x2f NuttX/nuttx/mm/libmm.a(mm_zalloc.o)
 .ARM.attributes
                0x00000000000006ff       0x2f NuttX/nuttx/mm/libmm.a(mm_malloc.o)
 .ARM.attributes
                0x000000000000072e       0x2f NuttX/nuttx/mm/libmm.a(mm_sem.o)
 .ARM.attributes
                0x000000000000075d       0x2f NuttX/nuttx/mm/libmm.a(mm_addfreechunk.o)
 .ARM.attributes
                0x000000000000078c       0x2f NuttX/nuttx/mm/libmm.a(mm_size2ndx.o)
 .ARM.attributes
                0x00000000000007bb       0x2f NuttX/nuttx/sched/libsched.a(errno_getptr.o)
 .ARM.attributes
                0x00000000000007ea       0x2f NuttX/nuttx/sched/libsched.a(os_start.o)
 .ARM.attributes
                0x0000000000000819       0x2f NuttX/nuttx/sched/libsched.a(os_bringup.o)
 .ARM.attributes
                0x0000000000000848       0x2f NuttX/nuttx/sched/libsched.a(irq_attach.o)
 .ARM.attributes
                0x0000000000000877       0x2f NuttX/nuttx/sched/libsched.a(irq_dispatch.o)
 .ARM.attributes
                0x00000000000008a6       0x2f NuttX/nuttx/sched/libsched.a(irq_unexpectedisr.o)
 .ARM.attributes
                0x00000000000008d5       0x2f NuttX/nuttx/sched/libsched.a(sched_garbage.o)
 .ARM.attributes
                0x0000000000000904       0x2f NuttX/nuttx/sched/libsched.a(sched_foreach.o)
 .ARM.attributes
                0x0000000000000933       0x2f NuttX/nuttx/sched/libsched.a(sched_idletask.o)
 .ARM.attributes
                0x0000000000000962       0x2f NuttX/nuttx/sched/libsched.a(sem_wait.o)
 .ARM.attributes
                0x0000000000000991       0x2f NuttX/nuttx/sched/libsched.a(sem_trywait.o)
 .ARM.attributes
                0x00000000000009c0       0x2f NuttX/nuttx/sched/libsched.a(sem_post.o)
 .ARM.attributes
                0x00000000000009ef       0x2f NuttX/nuttx/sched/libsched.a(sem_reset.o)
 .ARM.attributes
                0x0000000000000a1e       0x2f NuttX/nuttx/sched/libsched.a(task_create.o)
 .ARM.attributes
                0x0000000000000a4d       0x2f NuttX/nuttx/sched/libsched.a(task_setup.o)
 .ARM.attributes
                0x0000000000000a7c       0x2f NuttX/nuttx/sched/libsched.a(task_activate.o)
 .ARM.attributes
                0x0000000000000aab       0x2f NuttX/nuttx/sched/libsched.a(task_start.o)
 .ARM.attributes
                0x0000000000000ada       0x2f NuttX/nuttx/sched/libsched.a(task_getpid.o)
 .ARM.attributes
                0x0000000000000b09       0x2f NuttX/nuttx/sched/libsched.a(exit.o)
 .ARM.attributes
                0x0000000000000b38       0x2f NuttX/nuttx/sched/libsched.a(group_create.o)
 .ARM.attributes
                0x0000000000000b67       0x2f NuttX/nuttx/sched/libsched.a(group_setupidlefiles.o)
 .ARM.attributes
                0x0000000000000b96       0x2f NuttX/nuttx/sched/libsched.a(group_setuptaskfiles.o)
 .ARM.attributes
                0x0000000000000bc5       0x2f NuttX/nuttx/sched/libsched.a(irq_initialize.o)
 .ARM.attributes
                0x0000000000000bf4       0x2f NuttX/nuttx/sched/libsched.a(sched_releasetcb.o)
 .ARM.attributes
                0x0000000000000c23       0x2f NuttX/nuttx/sched/libsched.a(sched_lock.o)
 .ARM.attributes
                0x0000000000000c52       0x2f NuttX/nuttx/sched/libsched.a(sched_unlock.o)
 .ARM.attributes
                0x0000000000000c81       0x2f NuttX/nuttx/sched/libsched.a(task_exithook.o)
 .ARM.attributes
                0x0000000000000cb0       0x2f NuttX/nuttx/sched/libsched.a(task_recover.o)
 .ARM.attributes
                0x0000000000000cdf       0x2f NuttX/nuttx/sched/libsched.a(wd_recover.o)
 .ARM.attributes
                0x0000000000000d0e       0x2f NuttX/nuttx/sched/libsched.a(group_leave.o)
 .ARM.attributes
                0x0000000000000d3d       0x2f NuttX/nuttx/sched/libsched.a(sched_free.o)
 .ARM.attributes
                0x0000000000000d6c       0x2f NuttX/nuttx/sched/libsched.a(sem_recover.o)
 .ARM.attributes
                0x0000000000000d9b       0x2f NuttX/nuttx/sched/libsched.a(wd_cancel.o)
 .ARM.attributes
                0x0000000000000dca       0x2f NuttX/nuttx/sched/libsched.a(wd_delete.o)
 .ARM.attributes
                0x0000000000000df9       0x2f NuttX/nuttx/sched/libsched.a(wd_initialize.o)
 .ARM.attributes
                0x0000000000000e28       0x2f NuttX/nuttx/arch/arm/src/libarch.a(stm32_allocateheap.o)
 .ARM.attributes
                0x0000000000000e57       0x2f NuttX/nuttx/arch/arm/src/libarch.a(stm32_idle.o)
 .ARM.attributes
                0x0000000000000e86       0x2f NuttX/nuttx/arch/arm/src/libarch.a(up_blocktask.o)
 .ARM.attributes
                0x0000000000000eb5       0x2f NuttX/nuttx/arch/arm/src/libarch.a(up_copyfullstate.o)
 .ARM.attributes
                0x0000000000000ee4       0x2f NuttX/nuttx/arch/arm/src/libarch.a(up_createstack.o)
 .ARM.attributes
                0x0000000000000f13       0x2f NuttX/nuttx/arch/arm/src/libarch.a(up_mdelay.o)
 .ARM.attributes
                0x0000000000000f42       0x2f NuttX/nuttx/arch/arm/src/libarch.a(up_exit.o)
 .ARM.attributes
                0x0000000000000f71       0x2f NuttX/nuttx/arch/arm/src/libarch.a(up_initialize.o)
 .ARM.attributes
                0x0000000000000fa0       0x2f NuttX/nuttx/arch/arm/src/libarch.a(up_initialstate.o)
 .ARM.attributes
                0x0000000000000fcf       0x2f NuttX/nuttx/arch/arm/src/libarch.a(up_interruptcontext.o)
 .ARM.attributes
                0x0000000000000ffe       0x2f NuttX/nuttx/arch/arm/src/libarch.a(up_releasepending.o)
 .ARM.attributes
                0x000000000000102d       0x2f NuttX/nuttx/arch/arm/src/libarch.a(up_releasestack.o)
 .ARM.attributes
                0x000000000000105c       0x2f NuttX/nuttx/arch/arm/src/libarch.a(up_stackframe.o)
 .ARM.attributes
                0x000000000000108b       0x2f NuttX/nuttx/arch/arm/src/libarch.a(up_unblocktask.o)
 .ARM.attributes
                0x00000000000010ba       0x21 NuttX/nuttx/arch/arm/src/libarch.a(up_fullcontextrestore.o)
 .ARM.attributes
                0x00000000000010db       0x21 NuttX/nuttx/arch/arm/src/libarch.a(up_switchcontext.o)
 .ARM.attributes
                0x00000000000010fc       0x2f NuttX/nuttx/arch/arm/src/libarch.a(stm32_timerisr.o)
 .ARM.attributes
                0x000000000000112b       0x2f NuttX/nuttx/libc/libc.a(sq_addlast.o)
 .ARM.attributes
                0x000000000000115a       0x2f NuttX/nuttx/libc/libc.a(sq_remfirst.o)
 .ARM.attributes
                0x0000000000001189       0x2f NuttX/nuttx/libc/libc.a(sq_remafter.o)
 .ARM.attributes
                0x00000000000011b8       0x2f NuttX/nuttx/libc/libc.a(dq_addfirst.o)
 .ARM.attributes
                0x00000000000011e7       0x2f NuttX/nuttx/libc/libc.a(dq_rem.o)
 .ARM.attributes
                0x0000000000001216       0x2f NuttX/nuttx/libc/libc.a(sem_setprotocol.o)
 .ARM.attributes
                0x0000000000001245       0x2f NuttX/nuttx/libc/libc.a(lib_libvsprintf.o)
 .ARM.attributes
                0x0000000000001274       0x2f NuttX/nuttx/libc/libc.a(lib_nulloutstream.o)
 .ARM.attributes
                0x00000000000012a3       0x2f NuttX/nuttx/libc/libc.a(lib_libnoflush.o)
 .ARM.attributes
                0x00000000000012d2       0x2f NuttX/nuttx/libc/libc.a(lib_memset.o)
 .ARM.attributes
                0x0000000000001301       0x2f NuttX/nuttx/libc/libc.a(lib_strchr.o)
 .ARM.attributes
                0x0000000000001330       0x2f NuttX/nuttx/libc/libc.a(lib_strlen.o)
 .ARM.attributes
                0x000000000000135f       0x2f NuttX/nuttx/libc/libc.a(lib_strnlen.o)
 .ARM.attributes
                0x000000000000138e       0x2f NuttX/nuttx/libc/libc.a(lib_strncpy.o)
 .ARM.attributes
                0x00000000000013bd       0x2f NuttX/nuttx/drivers/libdrivers.a(syslog_initialize.o)
 .ARM.attributes
                0x00000000000013ec       0x2f NuttX/nuttx/drivers/libdrivers.a(syslog_consolechannel.o)
 .ARM.attributes
                0x000000000000141b       0x2f NuttX/nuttx/drivers/libdrivers.a(syslog_device.o)
 .ARM.attributes
                0x000000000000144a       0x2f NuttX/nuttx/fs/libfs.a(fs_initialize.o)
 .ARM.attributes
                0x0000000000001479       0x2f NuttX/nuttx/fs/libfs.a(fs_files.o)
 .ARM.attributes
                0x00000000000014a8       0x2f NuttX/nuttx/fs/libfs.a(fs_inodeaddref.o)
 .ARM.attributes
                0x00000000000014d7       0x2f NuttX/nuttx/fs/libfs.a(fs_inoderelease.o)
 .ARM.attributes
                0x0000000000001506       0x2f NuttX/nuttx/fs/libfs.a(fs_filedetach.o)
 .ARM.attributes
                0x0000000000001535       0x2f NuttX/nuttx/fs/libfs.a(fs_close.o)
 .ARM.attributes
                0x0000000000001564       0x2f NuttX/nuttx/fs/libfs.a(fs_dupfd2.o)
 .ARM.attributes
                0x0000000000001593       0x2f NuttX/nuttx/fs/libfs.a(fs_getfilep.o)
 .ARM.attributes
                0x00000000000015c2       0x2f NuttX/nuttx/fs/libfs.a(fs_open.o)
 .ARM.attributes
                0x00000000000015f1       0x2f NuttX/nuttx/fs/libfs.a(fs_write.o)
 .ARM.attributes
                0x0000000000001620       0x2f NuttX/nuttx/fs/libfs.a(fs_inodefind.o)
 .ARM.attributes
                0x000000000000164f       0x2f NuttX/nuttx/fs/libfs.a(fs_inodefree.o)
 .ARM.attributes
                0x000000000000167e       0x2f NuttX/nuttx/mm/libmm.a(umm_initialize.o)
 .ARM.attributes
                0x00000000000016ad       0x2f NuttX/nuttx/mm/libmm.a(umm_sem.o)
 .ARM.attributes
                0x00000000000016dc       0x2f NuttX/nuttx/mm/libmm.a(umm_free.o)
 .ARM.attributes
                0x000000000000170b       0x2f NuttX/nuttx/mm/libmm.a(umm_malloc.o)
 .ARM.attributes
                0x000000000000173a       0x2f NuttX/nuttx/mm/libmm.a(mm_initialize.o)
 .ARM.attributes
                0x0000000000001769       0x2f NuttX/nuttx/mm/libmm.a(mm_free.o)
 .ARM.attributes
                0x0000000000001798       0x2f NuttX/nuttx/sched/libsched.a(sched_getfiles.o)
 .ARM.attributes
                0x00000000000017c7       0x2f NuttX/nuttx/sched/libsched.a(sched_addreadytorun.o)
 .ARM.attributes
                0x00000000000017f6       0x2f NuttX/nuttx/sched/libsched.a(sched_removereadytorun.o)
 .ARM.attributes
                0x0000000000001825       0x2f NuttX/nuttx/sched/libsched.a(sched_addprioritized.o)
 .ARM.attributes
                0x0000000000001854       0x2f NuttX/nuttx/sched/libsched.a(sched_mergepending.o)
 .ARM.attributes
                0x0000000000001883       0x2f NuttX/nuttx/sched/libsched.a(sched_addblocked.o)
 .ARM.attributes
                0x00000000000018b2       0x2f NuttX/nuttx/sched/libsched.a(sched_removeblocked.o)
 .ARM.attributes
                0x00000000000018e1       0x2f NuttX/nuttx/sched/libsched.a(sched_processtimer.o)
 .ARM.attributes
                0x0000000000001910       0x2f NuttX/nuttx/sched/libsched.a(sem_destroy.o)
 .ARM.attributes
                0x000000000000193f       0x2f NuttX/nuttx/sched/libsched.a(task_exit.o)
 .ARM.attributes
                0x000000000000196e       0x2f NuttX/nuttx/sched/libsched.a(task_terminate.o)
 .ARM.attributes
                0x000000000000199d       0x2f NuttX/nuttx/sched/libsched.a(wd_start.o)
 .ARM.attributes
                0x00000000000019cc       0x2f NuttX/nuttx/sched/libsched.a(sched_gettcb.o)
 .ARM.attributes
                0x00000000000019fb       0x2f NuttX/nuttx/libc/libc.a(sq_addfirst.o)
 .ARM.attributes
                0x0000000000001a2a       0x2f NuttX/nuttx/libc/libc.a(sq_addafter.o)
 .ARM.attributes
                0x0000000000001a59       0x2f NuttX/nuttx/libc/libc.a(dq_addlast.o)
 .ARM.attributes
                0x0000000000001a88       0x2f NuttX/nuttx/libc/libc.a(lib_strdup.o)
 .ARM.attributes
                0x0000000000001ab7       0x2f src/modules/px4iofirmware/libpx4iofirmware.a(px4io.c.obj)
 .ARM.attributes
                0x0000000000001ae6       0x2f src/modules/px4iofirmware/libpx4iofirmware.a(registers.c.obj)
 .ARM.attributes
                0x0000000000001b15       0x2f src/modules/px4iofirmware/libpx4iofirmware.a(safety.c.obj)
 .ARM.attributes
                0x0000000000001b44       0x2f src/modules/px4iofirmware/libpx4iofirmware.a(serial.c.obj)
 .ARM.attributes
                0x0000000000001b73       0x2f src/modules/px4iofirmware/libpx4iofirmware.a(pwm_limit.c.obj)
 .ARM.attributes
                0x0000000000001ba2       0x2f src/modules/px4iofirmware/libpx4iofirmware.a(adc.c.obj)
 .ARM.attributes
                0x0000000000001bd1       0x2f src/modules/px4iofirmware/libpx4iofirmware.a(controls.c.obj)
 .ARM.attributes
                0x0000000000001c00       0x2f src/modules/px4iofirmware/libpx4iofirmware.a(mixer.cpp.obj)
 .ARM.attributes
                0x0000000000001c2f       0x2f NuttX/apps/libapps.a(gnu_cxxinitialize.o)
 .ARM.attributes
                0x0000000000001c5e       0x2f NuttX/nuttx/arch/arm/src/libarch.a(up_udelay.o)
 .ARM.attributes
                0x0000000000001c8d       0x2f NuttX/nuttx/arch/arm/src/libarch.a(up_systemreset.o)
 .ARM.attributes
                0x0000000000001cbc       0x2f src/drivers/boards/px4io-v2/libdrivers_board.a(init.c.obj)
 .ARM.attributes
                0x0000000000001ceb       0x2f src/drivers/stm32/libdrivers_arch.a(drv_hrt.c.obj)
 .ARM.attributes
                0x0000000000001d1a       0x2f src/drivers/stm32/libdrivers_arch.a(drv_pwm_servo.c.obj)
 .ARM.attributes
                0x0000000000001d49       0x2f src/drivers/stm32/libdrivers_arch.a(drv_io_timer.c.obj)
 .ARM.attributes
                0x0000000000001d78       0x2f src/drivers/boards/px4io-v2/libdrivers_board.a(timer_config.c.obj)
 .ARM.attributes
                0x0000000000001da7       0x2f src/lib/mixer/libmixer.a(mixer_group.cpp.obj)
 .ARM.attributes
                0x0000000000001dd6       0x2f src/lib/mixer/libmixer.a(mixer_helicopter.cpp.obj)
 .ARM.attributes
                0x0000000000001e05       0x2f src/lib/mixer/libmixer.a(mixer_multirotor.cpp.obj)
 .ARM.attributes
                0x0000000000001e34       0x2f src/lib/mixer/libmixer.a(mixer_simple.cpp.obj)
 .ARM.attributes
                0x0000000000001e63       0x2f src/lib/mixer/libmixer.a(mixer.cpp.obj)
 .ARM.attributes
                0x0000000000001e92       0x2f src/lib/rc/librc.a(st24.cpp.obj)
 .ARM.attributes
                0x0000000000001ec1       0x2f src/lib/rc/librc.a(sumd.cpp.obj)
 .ARM.attributes
                0x0000000000001ef0       0x2f src/lib/rc/librc.a(sbus.cpp.obj)
 .ARM.attributes
                0x0000000000001f1f       0x2f src/lib/rc/librc.a(dsm.cpp.obj)
 .ARM.attributes
                0x0000000000001f4e       0x2f src/lib/rc/librc.a(common_rc.cpp.obj)
 .ARM.attributes
                0x0000000000001f7d       0x2f NuttX/nuttx/libxx/libcxx.a(libxx_cxapurevirtual.o)
 .ARM.attributes
                0x0000000000001fac       0x2f NuttX/nuttx/libxx/libcxx.a(libxx_eabi_atexit.o)
 .ARM.attributes
                0x0000000000001fdb       0x2f NuttX/nuttx/libxx/libcxx.a(libxx_cxa_atexit.o)
 .ARM.attributes
                0x000000000000200a       0x2f NuttX/nuttx/libxx/libcxx.a(libxx_delete.o)
 .ARM.attributes
                0x0000000000002039       0x2f NuttX/nuttx/libxx/libcxx.a(libxx_deletea.o)
 .ARM.attributes
                0x0000000000002068       0x2f NuttX/nuttx/libxx/libcxx.a(libxx_new.o)
 .ARM.attributes
                0x0000000000002097       0x2f NuttX/nuttx/libxx/libcxx.a(libxx_newa.o)
 .ARM.attributes
                0x00000000000020c6       0x2f NuttX/nuttx/libc/libc.a(lib_crc32.o)
 .ARM.attributes
                0x00000000000020f5       0x2f NuttX/nuttx/libc/libc.a(sq_rem.o)
 .ARM.attributes
                0x0000000000002124       0x2f NuttX/nuttx/libc/libc.a(lib_printf.o)
 .ARM.attributes
                0x0000000000002153       0x2f NuttX/nuttx/libc/libc.a(lib_vsnprintf.o)
 .ARM.attributes
                0x0000000000002182       0x2f NuttX/nuttx/libc/libc.a(lib_memoutstream.o)
 .ARM.attributes
                0x00000000000021b1       0x2f NuttX/nuttx/libc/libc.a(lib_sscanf.o)
 .ARM.attributes
                0x00000000000021e0       0x2f NuttX/nuttx/libc/libc.a(lib_strtol.o)
 .ARM.attributes
                0x000000000000220f       0x2f NuttX/nuttx/libc/libc.a(lib_strtoul.o)
 .ARM.attributes
                0x000000000000223e       0x2f NuttX/nuttx/libc/libc.a(lib_checkbase.o)
 .ARM.attributes
                0x000000000000226d       0x2f NuttX/nuttx/libc/libc.a(lib_isbasedigit.o)
 .ARM.attributes
                0x000000000000229c       0x2f NuttX/nuttx/libc/libc.a(lib_memchr.o)
 .ARM.attributes
                0x00000000000022cb       0x2f NuttX/nuttx/libc/libc.a(lib_memmove.o)
 .ARM.attributes
                0x00000000000022fa       0x2f NuttX/nuttx/libc/libc.a(lib_skipspace.o)
 .ARM.attributes
                0x0000000000002329       0x2f NuttX/nuttx/libc/libc.a(lib_strcmp.o)
 .ARM.attributes
                0x0000000000002358       0x2f NuttX/nuttx/libc/libc.a(lib_strcspn.o)
 .ARM.attributes
                0x0000000000002387       0x2f NuttX/nuttx/libc/libc.a(lib_tcgetattr.o)
 .ARM.attributes
                0x00000000000023b6       0x2f NuttX/nuttx/libc/libc.a(lib_tcsetattr.o)
 .ARM.attributes
                0x00000000000023e5       0x2f NuttX/nuttx/fs/libfs.a(fs_ioctl.o)
 .ARM.attributes
                0x0000000000002414       0x2f NuttX/nuttx/fs/libfs.a(fs_read.o)
 .ARM.attributes
                0x0000000000002443       0x2f NuttX/nuttx/mm/libmm.a(umm_mallinfo.o)
 .ARM.attributes
                0x0000000000002472       0x2f NuttX/nuttx/mm/libmm.a(mm_mallinfo.o)
 .ARM.attributes
                0x00000000000024a1       0x2d /home/zhouhua/gcc-arm-none-eabi-7-2017-q4-major/bin/../lib/gcc/arm-none-eabi/7.2.1/../../../../arm-none-eabi/lib/thumb/v7-m/libm.a(lib_a-sf_cos.o)
 .ARM.attributes
                0x00000000000024ce       0x2d /home/zhouhua/gcc-arm-none-eabi-7-2017-q4-major/bin/../lib/gcc/arm-none-eabi/7.2.1/../../../../arm-none-eabi/lib/thumb/v7-m/libm.a(lib_a-sf_floor.o)
 .ARM.attributes
                0x00000000000024fb       0x2d /home/zhouhua/gcc-arm-none-eabi-7-2017-q4-major/bin/../lib/gcc/arm-none-eabi/7.2.1/../../../../arm-none-eabi/lib/thumb/v7-m/libm.a(lib_a-sf_fmax.o)
 .ARM.attributes
                0x0000000000002528       0x2d /home/zhouhua/gcc-arm-none-eabi-7-2017-q4-major/bin/../lib/gcc/arm-none-eabi/7.2.1/../../../../arm-none-eabi/lib/thumb/v7-m/libm.a(lib_a-sf_fmin.o)
 .ARM.attributes
                0x0000000000002555       0x2d /home/zhouhua/gcc-arm-none-eabi-7-2017-q4-major/bin/../lib/gcc/arm-none-eabi/7.2.1/../../../../arm-none-eabi/lib/thumb/v7-m/libm.a(lib_a-sf_fpclassify.o)
 .ARM.attributes
                0x0000000000002582       0x2d /home/zhouhua/gcc-arm-none-eabi-7-2017-q4-major/bin/../lib/gcc/arm-none-eabi/7.2.1/../../../../arm-none-eabi/lib/thumb/v7-m/libm.a(lib_a-sf_sin.o)
 .ARM.attributes
                0x00000000000025af       0x2d /home/zhouhua/gcc-arm-none-eabi-7-2017-q4-major/bin/../lib/gcc/arm-none-eabi/7.2.1/../../../../arm-none-eabi/lib/thumb/v7-m/libm.a(lib_a-wf_sqrt.o)
 .ARM.attributes
                0x00000000000025dc       0x2d /home/zhouhua/gcc-arm-none-eabi-7-2017-q4-major/bin/../lib/gcc/arm-none-eabi/7.2.1/../../../../arm-none-eabi/lib/thumb/v7-m/libm.a(lib_a-ef_rem_pio2.o)
 .ARM.attributes
                0x0000000000002609       0x2d /home/zhouhua/gcc-arm-none-eabi-7-2017-q4-major/bin/../lib/gcc/arm-none-eabi/7.2.1/../../../../arm-none-eabi/lib/thumb/v7-m/libm.a(lib_a-ef_sqrt.o)
 .ARM.attributes
                0x0000000000002636       0x2d /home/zhouhua/gcc-arm-none-eabi-7-2017-q4-major/bin/../lib/gcc/arm-none-eabi/7.2.1/../../../../arm-none-eabi/lib/thumb/v7-m/libm.a(lib_a-kf_cos.o)
 .ARM.attributes
                0x0000000000002663       0x2d /home/zhouhua/gcc-arm-none-eabi-7-2017-q4-major/bin/../lib/gcc/arm-none-eabi/7.2.1/../../../../arm-none-eabi/lib/thumb/v7-m/libm.a(lib_a-kf_rem_pio2.o)
 .ARM.attributes
                0x0000000000002690       0x2d /home/zhouhua/gcc-arm-none-eabi-7-2017-q4-major/bin/../lib/gcc/arm-none-eabi/7.2.1/../../../../arm-none-eabi/lib/thumb/v7-m/libm.a(lib_a-kf_sin.o)
 .ARM.attributes
                0x00000000000026bd       0x2d /home/zhouhua/gcc-arm-none-eabi-7-2017-q4-major/bin/../lib/gcc/arm-none-eabi/7.2.1/../../../../arm-none-eabi/lib/thumb/v7-m/libm.a(lib_a-s_lib_ver.o)
 .ARM.attributes
                0x00000000000026ea       0x2d /home/zhouhua/gcc-arm-none-eabi-7-2017-q4-major/bin/../lib/gcc/arm-none-eabi/7.2.1/../../../../arm-none-eabi/lib/thumb/v7-m/libm.a(lib_a-s_matherr.o)
 .ARM.attributes
                0x0000000000002717       0x2d /home/zhouhua/gcc-arm-none-eabi-7-2017-q4-major/bin/../lib/gcc/arm-none-eabi/7.2.1/../../../../arm-none-eabi/lib/thumb/v7-m/libm.a(lib_a-sf_fabs.o)
 .ARM.attributes
                0x0000000000002744       0x2d /home/zhouhua/gcc-arm-none-eabi-7-2017-q4-major/bin/../lib/gcc/arm-none-eabi/7.2.1/../../../../arm-none-eabi/lib/thumb/v7-m/libm.a(lib_a-sf_scalbn.o)
 .ARM.attributes
                0x0000000000002771       0x2d /home/zhouhua/gcc-arm-none-eabi-7-2017-q4-major/bin/../lib/gcc/arm-none-eabi/7.2.1/../../../../arm-none-eabi/lib/thumb/v7-m/libm.a(lib_a-sf_copysign.o)
 .ARM.attributes
                0x000000000000279e       0x1d /home/zhouhua/gcc-arm-none-eabi-7-2017-q4-major/bin/../lib/gcc/arm-none-eabi/7.2.1/thumb/v7-m/libgcc.a(_arm_addsubdf3.o)
 .ARM.attributes
                0x00000000000027bb       0x1d /home/zhouhua/gcc-arm-none-eabi-7-2017-q4-major/bin/../lib/gcc/arm-none-eabi/7.2.1/thumb/v7-m/libgcc.a(_arm_muldivdf3.o)
 .ARM.attributes
                0x00000000000027d8       0x1d /home/zhouhua/gcc-arm-none-eabi-7-2017-q4-major/bin/../lib/gcc/arm-none-eabi/7.2.1/thumb/v7-m/libgcc.a(_arm_truncdfsf2.o)
 .ARM.attributes
                0x00000000000027f5       0x1d /home/zhouhua/gcc-arm-none-eabi-7-2017-q4-major/bin/../lib/gcc/arm-none-eabi/7.2.1/thumb/v7-m/libgcc.a(_arm_addsubsf3.o)
 .ARM.attributes
                0x0000000000002812       0x1d /home/zhouhua/gcc-arm-none-eabi-7-2017-q4-major/bin/../lib/gcc/arm-none-eabi/7.2.1/thumb/v7-m/libgcc.a(_arm_muldivsf3.o)
 .ARM.attributes
                0x000000000000282f       0x1d /home/zhouhua/gcc-arm-none-eabi-7-2017-q4-major/bin/../lib/gcc/arm-none-eabi/7.2.1/thumb/v7-m/libgcc.a(_arm_cmpsf2.o)
 .ARM.attributes
                0x000000000000284c       0x1d /home/zhouhua/gcc-arm-none-eabi-7-2017-q4-major/bin/../lib/gcc/arm-none-eabi/7.2.1/thumb/v7-m/libgcc.a(_arm_unordsf2.o)
 .ARM.attributes
                0x0000000000002869       0x1d /home/zhouhua/gcc-arm-none-eabi-7-2017-q4-major/bin/../lib/gcc/arm-none-eabi/7.2.1/thumb/v7-m/libgcc.a(_arm_fixsfsi.o)
 .ARM.attributes
                0x0000000000002886       0x1d /home/zhouhua/gcc-arm-none-eabi-7-2017-q4-major/bin/../lib/gcc/arm-none-eabi/7.2.1/thumb/v7-m/libgcc.a(_arm_fixunssfsi.o)
 .ARM.attributes
                0x00000000000028a3       0x1d /home/zhouhua/gcc-arm-none-eabi-7-2017-q4-major/bin/../lib/gcc/arm-none-eabi/7.2.1/thumb/v7-m/libgcc.a(_aeabi_uldivmod.o)
 .ARM.attributes
                0x00000000000028c0       0x2d /home/zhouhua/gcc-arm-none-eabi-7-2017-q4-major/bin/../lib/gcc/arm-none-eabi/7.2.1/thumb/v7-m/libgcc.a(_udivmoddi4.o)
 .ARM.attributes
                0x00000000000028ed       0x1d /home/zhouhua/gcc-arm-none-eabi-7-2017-q4-major/bin/../lib/gcc/arm-none-eabi/7.2.1/thumb/v7-m/libgcc.a(_dvmd_tls.o)
 .ARM.attributes
                0x000000000000290a       0x2f src/lib/perf/libperf.a(perf_counter.c.obj)

.debug_abbrev   0x0000000000000000    0x153c6
 *(.debug_abbrev)
 .debug_abbrev  0x0000000000000000      0x141 NuttX/nuttx/arch/arm/src/libarch.a(stm32_start.o)
 .debug_abbrev  0x0000000000000141      0x17c NuttX/nuttx/arch/arm/src/libarch.a(stm32_rcc.o)
 .debug_abbrev  0x00000000000002bd      0x1ef NuttX/nuttx/arch/arm/src/libarch.a(stm32_gpio.o)
 .debug_abbrev  0x00000000000004ac      0x11d NuttX/nuttx/arch/arm/src/libarch.a(stm32_lowputc.o)
 .debug_abbrev  0x00000000000005c9      0x3cc NuttX/nuttx/arch/arm/src/libarch.a(stm32_serial.o)
 .debug_abbrev  0x0000000000000995      0x179 NuttX/nuttx/arch/arm/src/libarch.a(up_modifyreg32.o)
 .debug_abbrev  0x0000000000000b0e       0x7f NuttX/nuttx/arch/arm/src/libarch.a(up_vectors.o)
 .debug_abbrev  0x0000000000000b8d       0x14 NuttX/nuttx/arch/arm/src/libarch.a(up_exception.o)
 .debug_abbrev  0x0000000000000ba1      0x21e NuttX/nuttx/arch/arm/src/libarch.a(stm32_irq.o)
 .debug_abbrev  0x0000000000000dbf      0x3a6 NuttX/nuttx/arch/arm/src/libarch.a(stm32_dma.o)
 .debug_abbrev  0x0000000000001165      0x340 NuttX/nuttx/arch/arm/src/libarch.a(up_assert.o)
 .debug_abbrev  0x00000000000014a5      0x105 NuttX/nuttx/arch/arm/src/libarch.a(up_doirq.o)
 .debug_abbrev  0x00000000000015aa      0x1ad NuttX/nuttx/arch/arm/src/libarch.a(up_hardfault.o)
 .debug_abbrev  0x0000000000001757      0x118 NuttX/nuttx/arch/arm/src/libarch.a(up_svcall.o)
 .debug_abbrev  0x000000000000186f      0x208 NuttX/nuttx/arch/arm/src/libarch.a(up_checkstack.o)
 .debug_abbrev  0x0000000000001a77       0x14 NuttX/nuttx/libc/libc.a(arch_memcpy.o)
 .debug_abbrev  0x0000000000001a8b       0xbb NuttX/nuttx/libc/libc.a(sem_init.o)
 .debug_abbrev  0x0000000000001b46       0x9d NuttX/nuttx/libc/libc.a(lib_abort.o)
 .debug_abbrev  0x0000000000001be3       0x83 NuttX/nuttx/libc/libc.a(lib_strcpy.o)
 .debug_abbrev  0x0000000000001c66      0x10f NuttX/nuttx/libc/libc.a(lib_syslog.o)
 .debug_abbrev  0x0000000000001d75      0x178 NuttX/nuttx/libc/libc.a(lib_setlogmask.o)
 .debug_abbrev  0x0000000000001eed       0xa2 NuttX/nuttx/libc/libc.a(lib_cfgetspeed.o)
 .debug_abbrev  0x0000000000001f8f       0xaa NuttX/nuttx/libc/libc.a(lib_cfsetspeed.o)
 .debug_abbrev  0x0000000000002039      0x41a NuttX/nuttx/drivers/libdrivers.a(serial.o)
 .debug_abbrev  0x0000000000002453      0x1b0 NuttX/nuttx/drivers/libdrivers.a(serial_io.o)
 .debug_abbrev  0x0000000000002603      0x148 NuttX/nuttx/drivers/libdrivers.a(vsyslog.o)
 .debug_abbrev  0x000000000000274b      0x190 NuttX/nuttx/drivers/libdrivers.a(syslog_stream.o)
 .debug_abbrev  0x00000000000028db      0x153 NuttX/nuttx/drivers/libdrivers.a(syslog_emergstream.o)
 .debug_abbrev  0x0000000000002a2e       0xf9 NuttX/nuttx/drivers/libdrivers.a(syslog_putc.o)
 .debug_abbrev  0x0000000000002b27       0xd2 NuttX/nuttx/drivers/libdrivers.a(syslog_force.o)
 .debug_abbrev  0x0000000000002bf9       0xe8 NuttX/nuttx/drivers/libdrivers.a(syslog_channel.o)
 .debug_abbrev  0x0000000000002ce1      0x19e NuttX/nuttx/fs/libfs.a(fs_registerdriver.o)
 .debug_abbrev  0x0000000000002e7f      0x1b5 NuttX/nuttx/fs/libfs.a(fs_inode.o)
 .debug_abbrev  0x0000000000003034      0x28d NuttX/nuttx/fs/libfs.a(fs_inodereserve.o)
 .debug_abbrev  0x00000000000032c1      0x205 NuttX/nuttx/fs/libfs.a(fs_inodesearch.o)
 .debug_abbrev  0x00000000000034c6      0x101 NuttX/nuttx/mm/libmm.a(umm_zalloc.o)
 .debug_abbrev  0x00000000000035c7       0xa9 NuttX/nuttx/mm/libmm.a(umm_globals.o)
 .debug_abbrev  0x0000000000003670      0x12d NuttX/nuttx/mm/libmm.a(mm_zalloc.o)
 .debug_abbrev  0x000000000000379d      0x134 NuttX/nuttx/mm/libmm.a(mm_malloc.o)
 .debug_abbrev  0x00000000000038d1      0x15a NuttX/nuttx/mm/libmm.a(mm_sem.o)
 .debug_abbrev  0x0000000000003a2b      0x107 NuttX/nuttx/mm/libmm.a(mm_addfreechunk.o)
 .debug_abbrev  0x0000000000003b32       0xdc NuttX/nuttx/mm/libmm.a(mm_size2ndx.o)
 .debug_abbrev  0x0000000000003c0e      0x1cc NuttX/nuttx/sched/libsched.a(errno_getptr.o)
 .debug_abbrev  0x0000000000003dda      0x245 NuttX/nuttx/sched/libsched.a(os_start.o)
 .debug_abbrev  0x000000000000401f      0x116 NuttX/nuttx/sched/libsched.a(os_bringup.o)
 .debug_abbrev  0x0000000000004135      0x1e7 NuttX/nuttx/sched/libsched.a(irq_attach.o)
 .debug_abbrev  0x000000000000431c      0x10d NuttX/nuttx/sched/libsched.a(irq_dispatch.o)
 .debug_abbrev  0x0000000000004429      0x1ab NuttX/nuttx/sched/libsched.a(irq_unexpectedisr.o)
 .debug_abbrev  0x00000000000045d4      0x2d7 NuttX/nuttx/sched/libsched.a(sched_garbage.o)
 .debug_abbrev  0x00000000000048ab      0x27d NuttX/nuttx/sched/libsched.a(sched_foreach.o)
 .debug_abbrev  0x0000000000004b28      0x178 NuttX/nuttx/sched/libsched.a(sched_idletask.o)
 .debug_abbrev  0x0000000000004ca0      0x2c0 NuttX/nuttx/sched/libsched.a(sem_wait.o)
 .debug_abbrev  0x0000000000004f60      0x27a NuttX/nuttx/sched/libsched.a(sem_trywait.o)
 .debug_abbrev  0x00000000000051da      0x2a4 NuttX/nuttx/sched/libsched.a(sem_post.o)
 .debug_abbrev  0x000000000000547e      0x1ba NuttX/nuttx/sched/libsched.a(sem_reset.o)
 .debug_abbrev  0x0000000000005638      0x23d NuttX/nuttx/sched/libsched.a(task_create.o)
 .debug_abbrev  0x0000000000005875      0x2ca NuttX/nuttx/sched/libsched.a(task_setup.o)
 .debug_abbrev  0x0000000000005b3f      0x25e NuttX/nuttx/sched/libsched.a(task_activate.o)
 .debug_abbrev  0x0000000000005d9d      0x1a3 NuttX/nuttx/sched/libsched.a(task_start.o)
 .debug_abbrev  0x0000000000005f40      0x178 NuttX/nuttx/sched/libsched.a(task_getpid.o)
 .debug_abbrev  0x00000000000060b8      0x1bf NuttX/nuttx/sched/libsched.a(exit.o)
 .debug_abbrev  0x0000000000006277      0x209 NuttX/nuttx/sched/libsched.a(group_create.o)
 .debug_abbrev  0x0000000000006480      0x1de NuttX/nuttx/sched/libsched.a(group_setupidlefiles.o)
 .debug_abbrev  0x000000000000665e      0x1a5 NuttX/nuttx/sched/libsched.a(group_setuptaskfiles.o)
 .debug_abbrev  0x0000000000006803       0xd5 NuttX/nuttx/sched/libsched.a(irq_initialize.o)
 .debug_abbrev  0x00000000000068d8      0x235 NuttX/nuttx/sched/libsched.a(sched_releasetcb.o)
 .debug_abbrev  0x0000000000006b0d      0x196 NuttX/nuttx/sched/libsched.a(sched_lock.o)
 .debug_abbrev  0x0000000000006ca3      0x267 NuttX/nuttx/sched/libsched.a(sched_unlock.o)
 .debug_abbrev  0x0000000000006f0a      0x1bc NuttX/nuttx/sched/libsched.a(task_exithook.o)
 .debug_abbrev  0x00000000000070c6      0x1b0 NuttX/nuttx/sched/libsched.a(task_recover.o)
 .debug_abbrev  0x0000000000007276      0x25a NuttX/nuttx/sched/libsched.a(wd_recover.o)
 .debug_abbrev  0x00000000000074d0      0x203 NuttX/nuttx/sched/libsched.a(group_leave.o)
 .debug_abbrev  0x00000000000076d3      0x2af NuttX/nuttx/sched/libsched.a(sched_free.o)
 .debug_abbrev  0x0000000000007982      0x270 NuttX/nuttx/sched/libsched.a(sem_recover.o)
 .debug_abbrev  0x0000000000007bf2      0x291 NuttX/nuttx/sched/libsched.a(wd_cancel.o)
 .debug_abbrev  0x0000000000007e83      0x240 NuttX/nuttx/sched/libsched.a(wd_delete.o)
 .debug_abbrev  0x00000000000080c3      0x12e NuttX/nuttx/sched/libsched.a(wd_initialize.o)
 .debug_abbrev  0x00000000000081f1       0xf1 NuttX/nuttx/arch/arm/src/libarch.a(stm32_allocateheap.o)
 .debug_abbrev  0x00000000000082e2       0x9f NuttX/nuttx/arch/arm/src/libarch.a(stm32_idle.o)
 .debug_abbrev  0x0000000000008381      0x21a NuttX/nuttx/arch/arm/src/libarch.a(up_blocktask.o)
 .debug_abbrev  0x000000000000859b       0xc7 NuttX/nuttx/arch/arm/src/libarch.a(up_copyfullstate.o)
 .debug_abbrev  0x0000000000008662      0x23e NuttX/nuttx/arch/arm/src/libarch.a(up_createstack.o)
 .debug_abbrev  0x00000000000088a0       0x8e NuttX/nuttx/arch/arm/src/libarch.a(up_mdelay.o)
 .debug_abbrev  0x000000000000892e      0x25f NuttX/nuttx/arch/arm/src/libarch.a(up_exit.o)
 .debug_abbrev  0x0000000000008b8d      0x13c NuttX/nuttx/arch/arm/src/libarch.a(up_initialize.o)
 .debug_abbrev  0x0000000000008cc9      0x1b1 NuttX/nuttx/arch/arm/src/libarch.a(up_initialstate.o)
 .debug_abbrev  0x0000000000008e7a       0x9c NuttX/nuttx/arch/arm/src/libarch.a(up_interruptcontext.o)
 .debug_abbrev  0x0000000000008f16      0x1c2 NuttX/nuttx/arch/arm/src/libarch.a(up_releasepending.o)
 .debug_abbrev  0x00000000000090d8      0x194 NuttX/nuttx/arch/arm/src/libarch.a(up_releasestack.o)
 .debug_abbrev  0x000000000000926c      0x196 NuttX/nuttx/arch/arm/src/libarch.a(up_stackframe.o)
 .debug_abbrev  0x0000000000009402      0x20b NuttX/nuttx/arch/arm/src/libarch.a(up_unblocktask.o)
 .debug_abbrev  0x000000000000960d       0x14 NuttX/nuttx/arch/arm/src/libarch.a(up_fullcontextrestore.o)
 .debug_abbrev  0x0000000000009621       0x14 NuttX/nuttx/arch/arm/src/libarch.a(up_switchcontext.o)
 .debug_abbrev  0x0000000000009635      0x173 NuttX/nuttx/arch/arm/src/libarch.a(stm32_timerisr.o)
 .debug_abbrev  0x00000000000097a8       0x87 NuttX/nuttx/libc/libc.a(sq_addlast.o)
 .debug_abbrev  0x000000000000982f       0x98 NuttX/nuttx/libc/libc.a(sq_remfirst.o)
 .debug_abbrev  0x00000000000098c7       0x98 NuttX/nuttx/libc/libc.a(sq_remafter.o)
 .debug_abbrev  0x000000000000995f       0x87 NuttX/nuttx/libc/libc.a(dq_addfirst.o)
 .debug_abbrev  0x00000000000099e6       0xa5 NuttX/nuttx/libc/libc.a(dq_rem.o)
 .debug_abbrev  0x0000000000009a8b       0xdb NuttX/nuttx/libc/libc.a(sem_setprotocol.o)
 .debug_abbrev  0x0000000000009b66      0x2d9 NuttX/nuttx/libc/libc.a(lib_libvsprintf.o)
 .debug_abbrev  0x0000000000009e3f       0xee NuttX/nuttx/libc/libc.a(lib_nulloutstream.o)
 .debug_abbrev  0x0000000000009f2d       0xc9 NuttX/nuttx/libc/libc.a(lib_libnoflush.o)
 .debug_abbrev  0x0000000000009ff6       0x9d NuttX/nuttx/libc/libc.a(lib_memset.o)
 .debug_abbrev  0x000000000000a093       0x74 NuttX/nuttx/libc/libc.a(lib_strchr.o)
 .debug_abbrev  0x000000000000a107       0x8e NuttX/nuttx/libc/libc.a(lib_strlen.o)
 .debug_abbrev  0x000000000000a195       0x9d NuttX/nuttx/libc/libc.a(lib_strnlen.o)
 .debug_abbrev  0x000000000000a232       0x9d NuttX/nuttx/libc/libc.a(lib_strncpy.o)
 .debug_abbrev  0x000000000000a2cf      0x10d NuttX/nuttx/drivers/libdrivers.a(syslog_initialize.o)
 .debug_abbrev  0x000000000000a3dc      0x10a NuttX/nuttx/drivers/libdrivers.a(syslog_consolechannel.o)
 .debug_abbrev  0x000000000000a4e6      0x30b NuttX/nuttx/drivers/libdrivers.a(syslog_device.o)
 .debug_abbrev  0x000000000000a7f1      0x148 NuttX/nuttx/fs/libfs.a(fs_initialize.o)
 .debug_abbrev  0x000000000000a939      0x2c2 NuttX/nuttx/fs/libfs.a(fs_files.o)
 .debug_abbrev  0x000000000000abfb      0x162 NuttX/nuttx/fs/libfs.a(fs_inodeaddref.o)
 .debug_abbrev  0x000000000000ad5d      0x18f NuttX/nuttx/fs/libfs.a(fs_inoderelease.o)
 .debug_abbrev  0x000000000000aeec      0x1fe NuttX/nuttx/fs/libfs.a(fs_filedetach.o)
 .debug_abbrev  0x000000000000b0ea      0x19a NuttX/nuttx/fs/libfs.a(fs_close.o)
 .debug_abbrev  0x000000000000b284      0x18c NuttX/nuttx/fs/libfs.a(fs_dupfd2.o)
 .debug_abbrev  0x000000000000b410      0x172 NuttX/nuttx/fs/libfs.a(fs_getfilep.o)
 .debug_abbrev  0x000000000000b582      0x200 NuttX/nuttx/fs/libfs.a(fs_open.o)
 .debug_abbrev  0x000000000000b782      0x1d6 NuttX/nuttx/fs/libfs.a(fs_write.o)
 .debug_abbrev  0x000000000000b958      0x198 NuttX/nuttx/fs/libfs.a(fs_inodefind.o)
 .debug_abbrev  0x000000000000baf0      0x16e NuttX/nuttx/fs/libfs.a(fs_inodefree.o)
 .debug_abbrev  0x000000000000bc5e       0xff NuttX/nuttx/mm/libmm.a(umm_initialize.o)
 .debug_abbrev  0x000000000000bd5d       0xf9 NuttX/nuttx/mm/libmm.a(umm_sem.o)
 .debug_abbrev  0x000000000000be56       0xff NuttX/nuttx/mm/libmm.a(umm_free.o)
 .debug_abbrev  0x000000000000bf55      0x112 NuttX/nuttx/mm/libmm.a(umm_malloc.o)
 .debug_abbrev  0x000000000000c067      0x13d NuttX/nuttx/mm/libmm.a(mm_initialize.o)
 .debug_abbrev  0x000000000000c1a4      0x135 NuttX/nuttx/mm/libmm.a(mm_free.o)
 .debug_abbrev  0x000000000000c2d9      0x189 NuttX/nuttx/sched/libsched.a(sched_getfiles.o)
 .debug_abbrev  0x000000000000c462      0x1e9 NuttX/nuttx/sched/libsched.a(sched_addreadytorun.o)
 .debug_abbrev  0x000000000000c64b      0x1d8 NuttX/nuttx/sched/libsched.a(sched_removereadytorun.o)
 .debug_abbrev  0x000000000000c823      0x1de NuttX/nuttx/sched/libsched.a(sched_addprioritized.o)
 .debug_abbrev  0x000000000000ca01      0x1dc NuttX/nuttx/sched/libsched.a(sched_mergepending.o)
 .debug_abbrev  0x000000000000cbdd      0x1e9 NuttX/nuttx/sched/libsched.a(sched_addblocked.o)
 .debug_abbrev  0x000000000000cdc6      0x1cb NuttX/nuttx/sched/libsched.a(sched_removeblocked.o)
 .debug_abbrev  0x000000000000cf91      0x193 NuttX/nuttx/sched/libsched.a(sched_processtimer.o)
 .debug_abbrev  0x000000000000d124       0xbd NuttX/nuttx/sched/libsched.a(sem_destroy.o)
 .debug_abbrev  0x000000000000d1e1      0x1eb NuttX/nuttx/sched/libsched.a(task_exit.o)
 .debug_abbrev  0x000000000000d3cc      0x2f1 NuttX/nuttx/sched/libsched.a(task_terminate.o)
 .debug_abbrev  0x000000000000d6bd      0x328 NuttX/nuttx/sched/libsched.a(wd_start.o)
 .debug_abbrev  0x000000000000d9e5      0x196 NuttX/nuttx/sched/libsched.a(sched_gettcb.o)
 .debug_abbrev  0x000000000000db7b       0x87 NuttX/nuttx/libc/libc.a(sq_addfirst.o)
 .debug_abbrev  0x000000000000dc02       0xb2 NuttX/nuttx/libc/libc.a(sq_addafter.o)
 .debug_abbrev  0x000000000000dcb4       0x87 NuttX/nuttx/libc/libc.a(dq_addlast.o)
 .debug_abbrev  0x000000000000dd3b       0xd9 NuttX/nuttx/libc/libc.a(lib_strdup.o)
 .debug_abbrev  0x000000000000de14      0x2f5 src/modules/px4iofirmware/libpx4iofirmware.a(px4io.c.obj)
 .debug_abbrev  0x000000000000e109      0x2ae src/modules/px4iofirmware/libpx4iofirmware.a(registers.c.obj)
 .debug_abbrev  0x000000000000e3b7      0x2ff src/modules/px4iofirmware/libpx4iofirmware.a(safety.c.obj)
 .debug_abbrev  0x000000000000e6b6      0x307 src/modules/px4iofirmware/libpx4iofirmware.a(serial.c.obj)
 .debug_abbrev  0x000000000000e9bd      0x1b4 src/modules/px4iofirmware/libpx4iofirmware.a(pwm_limit.c.obj)
 .debug_abbrev  0x000000000000eb71      0x1a2 src/modules/px4iofirmware/libpx4iofirmware.a(adc.c.obj)
 .debug_abbrev  0x000000000000ed13      0x346 src/modules/px4iofirmware/libpx4iofirmware.a(controls.c.obj)
 .debug_abbrev  0x000000000000f059      0x500 src/modules/px4iofirmware/libpx4iofirmware.a(mixer.cpp.obj)
 .debug_abbrev  0x000000000000f559       0x88 NuttX/apps/libapps.a(gnu_cxxinitialize.o)
 .debug_abbrev  0x000000000000f5e1       0x8e NuttX/nuttx/arch/arm/src/libarch.a(up_udelay.o)
 .debug_abbrev  0x000000000000f66f       0x5e NuttX/nuttx/arch/arm/src/libarch.a(up_systemreset.o)
 .debug_abbrev  0x000000000000f6cd       0xd9 src/drivers/boards/px4io-v2/libdrivers_board.a(init.c.obj)
 .debug_abbrev  0x000000000000f7a6      0x406 src/drivers/stm32/libdrivers_arch.a(drv_hrt.c.obj)
 .debug_abbrev  0x000000000000fbac      0x1af src/drivers/stm32/libdrivers_arch.a(drv_pwm_servo.c.obj)
 .debug_abbrev  0x000000000000fd5b      0x3f8 src/drivers/stm32/libdrivers_arch.a(drv_io_timer.c.obj)
 .debug_abbrev  0x0000000000010153       0xe3 src/drivers/boards/px4io-v2/libdrivers_board.a(timer_config.c.obj)
 .debug_abbrev  0x0000000000010236      0x54b src/lib/mixer/libmixer.a(mixer_group.cpp.obj)
 .debug_abbrev  0x0000000000010781      0x5c3 src/lib/mixer/libmixer.a(mixer_helicopter.cpp.obj)
 .debug_abbrev  0x0000000000010d44      0x715 src/lib/mixer/libmixer.a(mixer_multirotor.cpp.obj)
 .debug_abbrev  0x0000000000011459      0x643 src/lib/mixer/libmixer.a(mixer_simple.cpp.obj)
 .debug_abbrev  0x0000000000011a9c      0x53f src/lib/mixer/libmixer.a(mixer.cpp.obj)
 .debug_abbrev  0x0000000000011fdb      0x2bb src/lib/rc/librc.a(st24.cpp.obj)
 .debug_abbrev  0x0000000000012296      0x334 src/lib/rc/librc.a(sumd.cpp.obj)
 .debug_abbrev  0x00000000000125ca      0x45b src/lib/rc/librc.a(sbus.cpp.obj)
 .debug_abbrev  0x0000000000012a25      0x486 src/lib/rc/librc.a(dsm.cpp.obj)
 .debug_abbrev  0x0000000000012eab      0x1ce src/lib/rc/librc.a(common_rc.cpp.obj)
 .debug_abbrev  0x0000000000013079       0x6a NuttX/nuttx/libxx/libcxx.a(libxx_cxapurevirtual.o)
 .debug_abbrev  0x00000000000130e3      0x1b3 NuttX/nuttx/libxx/libcxx.a(libxx_eabi_atexit.o)
 .debug_abbrev  0x0000000000013296      0x1b1 NuttX/nuttx/libxx/libcxx.a(libxx_cxa_atexit.o)
 .debug_abbrev  0x0000000000013447      0x199 NuttX/nuttx/libxx/libcxx.a(libxx_delete.o)
 .debug_abbrev  0x00000000000135e0      0x199 NuttX/nuttx/libxx/libcxx.a(libxx_deletea.o)
 .debug_abbrev  0x0000000000013779      0x1a8 NuttX/nuttx/libxx/libcxx.a(libxx_new.o)
 .debug_abbrev  0x0000000000013921      0x1a8 NuttX/nuttx/libxx/libcxx.a(libxx_newa.o)
 .debug_abbrev  0x0000000000013ac9       0xf2 NuttX/nuttx/libc/libc.a(lib_crc32.o)
 .debug_abbrev  0x0000000000013bbb       0xbe NuttX/nuttx/libc/libc.a(sq_rem.o)
 .debug_abbrev  0x0000000000013c79       0xe9 NuttX/nuttx/libc/libc.a(lib_printf.o)
 .debug_abbrev  0x0000000000013d62      0x18f NuttX/nuttx/libc/libc.a(lib_vsnprintf.o)
 .debug_abbrev  0x0000000000013ef1      0x119 NuttX/nuttx/libc/libc.a(lib_memoutstream.o)
 .debug_abbrev  0x000000000001400a      0x218 NuttX/nuttx/libc/libc.a(lib_sscanf.o)
 .debug_abbrev  0x0000000000014222       0xe8 NuttX/nuttx/libc/libc.a(lib_strtol.o)
 .debug_abbrev  0x000000000001430a       0xee NuttX/nuttx/libc/libc.a(lib_strtoul.o)
 .debug_abbrev  0x00000000000143f8       0xc1 NuttX/nuttx/libc/libc.a(lib_checkbase.o)
 .debug_abbrev  0x00000000000144b9       0xb0 NuttX/nuttx/libc/libc.a(lib_isbasedigit.o)
 .debug_abbrev  0x0000000000014569       0x9a NuttX/nuttx/libc/libc.a(lib_memchr.o)
 .debug_abbrev  0x0000000000014603       0xb1 NuttX/nuttx/libc/libc.a(lib_memmove.o)
 .debug_abbrev  0x00000000000146b4       0xcd NuttX/nuttx/libc/libc.a(lib_skipspace.o)
 .debug_abbrev  0x0000000000014781       0x74 NuttX/nuttx/libc/libc.a(lib_strcmp.o)
 .debug_abbrev  0x00000000000147f5       0xc5 NuttX/nuttx/libc/libc.a(lib_strcspn.o)
 .debug_abbrev  0x00000000000148ba       0xd5 NuttX/nuttx/libc/libc.a(lib_tcgetattr.o)
 .debug_abbrev  0x000000000001498f       0xdc NuttX/nuttx/libc/libc.a(lib_tcsetattr.o)
 .debug_abbrev  0x0000000000014a6b      0x1d1 NuttX/nuttx/fs/libfs.a(fs_ioctl.o)
 .debug_abbrev  0x0000000000014c3c      0x1da NuttX/nuttx/fs/libfs.a(fs_read.o)
 .debug_abbrev  0x0000000000014e16       0xf7 NuttX/nuttx/mm/libmm.a(umm_mallinfo.o)
 .debug_abbrev  0x0000000000014f0d      0x113 NuttX/nuttx/mm/libmm.a(mm_mallinfo.o)
 .debug_abbrev  0x0000000000015020      0x3a6 src/lib/perf/libperf.a(perf_counter.c.obj)

.debug_info     0x0000000000000000    0x52d37
 *(.debug_info)
 .debug_info    0x0000000000000000      0x262 NuttX/nuttx/arch/arm/src/libarch.a(stm32_start.o)
 .debug_info    0x0000000000000262      0x341 NuttX/nuttx/arch/arm/src/libarch.a(stm32_rcc.o)
 .debug_info    0x00000000000005a3      0x449 NuttX/nuttx/arch/arm/src/libarch.a(stm32_gpio.o)
 .debug_info    0x00000000000009ec      0x1e3 NuttX/nuttx/arch/arm/src/libarch.a(stm32_lowputc.o)
 .debug_info    0x0000000000000bcf     0x22aa NuttX/nuttx/arch/arm/src/libarch.a(stm32_serial.o)
 .debug_info    0x0000000000002e79      0x254 NuttX/nuttx/arch/arm/src/libarch.a(up_modifyreg32.o)
 .debug_info    0x00000000000030cd       0xc5 NuttX/nuttx/arch/arm/src/libarch.a(up_vectors.o)
 .debug_info    0x0000000000003192       0x26 NuttX/nuttx/arch/arm/src/libarch.a(up_exception.o)
 .debug_info    0x00000000000031b8      0x4be NuttX/nuttx/arch/arm/src/libarch.a(stm32_irq.o)
 .debug_info    0x0000000000003676     0x12d3 NuttX/nuttx/arch/arm/src/libarch.a(stm32_dma.o)
 .debug_info    0x0000000000004949     0x10b9 NuttX/nuttx/arch/arm/src/libarch.a(up_assert.o)
 .debug_info    0x0000000000005a02      0x231 NuttX/nuttx/arch/arm/src/libarch.a(up_doirq.o)
 .debug_info    0x0000000000005c33      0x304 NuttX/nuttx/arch/arm/src/libarch.a(up_hardfault.o)
 .debug_info    0x0000000000005f37      0x216 NuttX/nuttx/arch/arm/src/libarch.a(up_svcall.o)
 .debug_info    0x000000000000614d      0xb0f NuttX/nuttx/arch/arm/src/libarch.a(up_checkstack.o)
 .debug_info    0x0000000000006c5c       0x26 NuttX/nuttx/libc/libc.a(arch_memcpy.o)
 .debug_info    0x0000000000006c82      0x11b NuttX/nuttx/libc/libc.a(sem_init.o)
 .debug_info    0x0000000000006d9d      0x110 NuttX/nuttx/libc/libc.a(lib_abort.o)
 .debug_info    0x0000000000006ead       0xd0 NuttX/nuttx/libc/libc.a(lib_strcpy.o)
 .debug_info    0x0000000000006f7d      0x1c3 NuttX/nuttx/libc/libc.a(lib_syslog.o)
 .debug_info    0x0000000000007140      0x1e2 NuttX/nuttx/libc/libc.a(lib_setlogmask.o)
 .debug_info    0x0000000000007322      0x161 NuttX/nuttx/libc/libc.a(lib_cfgetspeed.o)
 .debug_info    0x0000000000007483      0x169 NuttX/nuttx/libc/libc.a(lib_cfsetspeed.o)
 .debug_info    0x00000000000075ec     0x17df NuttX/nuttx/drivers/libdrivers.a(serial.o)
 .debug_info    0x0000000000008dcb      0x6eb NuttX/nuttx/drivers/libdrivers.a(serial_io.o)
 .debug_info    0x00000000000094b6      0x298 NuttX/nuttx/drivers/libdrivers.a(vsyslog.o)
 .debug_info    0x000000000000974e      0x2d3 NuttX/nuttx/drivers/libdrivers.a(syslog_stream.o)
 .debug_info    0x0000000000009a21      0x27b NuttX/nuttx/drivers/libdrivers.a(syslog_emergstream.o)
 .debug_info    0x0000000000009c9c      0x1cb NuttX/nuttx/drivers/libdrivers.a(syslog_putc.o)
 .debug_info    0x0000000000009e67      0x133 NuttX/nuttx/drivers/libdrivers.a(syslog_force.o)
 .debug_info    0x0000000000009f9a      0x1c0 NuttX/nuttx/drivers/libdrivers.a(syslog_channel.o)
 .debug_info    0x000000000000a15a      0x561 NuttX/nuttx/fs/libfs.a(fs_registerdriver.o)
 .debug_info    0x000000000000a6bb      0x604 NuttX/nuttx/fs/libfs.a(fs_inode.o)
 .debug_info    0x000000000000acbf      0x7b9 NuttX/nuttx/fs/libfs.a(fs_inodereserve.o)
 .debug_info    0x000000000000b478      0x690 NuttX/nuttx/fs/libfs.a(fs_inodesearch.o)
 .debug_info    0x000000000000bb08      0x252 NuttX/nuttx/mm/libmm.a(umm_zalloc.o)
 .debug_info    0x000000000000bd5a      0x206 NuttX/nuttx/mm/libmm.a(umm_globals.o)
 .debug_info    0x000000000000bf60      0x2a4 NuttX/nuttx/mm/libmm.a(mm_zalloc.o)
 .debug_info    0x000000000000c204      0x333 NuttX/nuttx/mm/libmm.a(mm_malloc.o)
 .debug_info    0x000000000000c537      0x3ee NuttX/nuttx/mm/libmm.a(mm_sem.o)
 .debug_info    0x000000000000c925      0x280 NuttX/nuttx/mm/libmm.a(mm_addfreechunk.o)
 .debug_info    0x000000000000cba5      0x238 NuttX/nuttx/mm/libmm.a(mm_size2ndx.o)
 .debug_info    0x000000000000cddd      0x9dc NuttX/nuttx/sched/libsched.a(errno_getptr.o)
 .debug_info    0x000000000000d7b9      0xe62 NuttX/nuttx/sched/libsched.a(os_start.o)
 .debug_info    0x000000000000e61b      0x1f9 NuttX/nuttx/sched/libsched.a(os_bringup.o)
 .debug_info    0x000000000000e814      0x323 NuttX/nuttx/sched/libsched.a(irq_attach.o)
 .debug_info    0x000000000000eb37      0x1a5 NuttX/nuttx/sched/libsched.a(irq_dispatch.o)
 .debug_info    0x000000000000ecdc      0x27f NuttX/nuttx/sched/libsched.a(irq_unexpectedisr.o)
 .debug_info    0x000000000000ef5b      0xb09 NuttX/nuttx/sched/libsched.a(sched_garbage.o)
 .debug_info    0x000000000000fa64      0xad7 NuttX/nuttx/sched/libsched.a(sched_foreach.o)
 .debug_info    0x000000000001053b      0x96b NuttX/nuttx/sched/libsched.a(sched_idletask.o)
 .debug_info    0x0000000000010ea6      0xb54 NuttX/nuttx/sched/libsched.a(sem_wait.o)
 .debug_info    0x00000000000119fa      0xabb NuttX/nuttx/sched/libsched.a(sem_trywait.o)
 .debug_info    0x00000000000124b5      0xaef NuttX/nuttx/sched/libsched.a(sem_post.o)
 .debug_info    0x0000000000012fa4      0x2d2 NuttX/nuttx/sched/libsched.a(sem_reset.o)
 .debug_info    0x0000000000013276      0xcf9 NuttX/nuttx/sched/libsched.a(task_create.o)
 .debug_info    0x0000000000013f6f      0xe61 NuttX/nuttx/sched/libsched.a(task_setup.o)
 .debug_info    0x0000000000014dd0      0x7e0 NuttX/nuttx/sched/libsched.a(task_activate.o)
 .debug_info    0x00000000000155b0      0x9c1 NuttX/nuttx/sched/libsched.a(task_start.o)
 .debug_info    0x0000000000015f71      0x961 NuttX/nuttx/sched/libsched.a(task_getpid.o)
 .debug_info    0x00000000000168d2      0x9af NuttX/nuttx/sched/libsched.a(exit.o)
 .debug_info    0x0000000000017281      0x863 NuttX/nuttx/sched/libsched.a(group_create.o)
 .debug_info    0x0000000000017ae4      0x88c NuttX/nuttx/sched/libsched.a(group_setupidlefiles.o)
 .debug_info    0x0000000000018370      0x9b7 NuttX/nuttx/sched/libsched.a(group_setuptaskfiles.o)
 .debug_info    0x0000000000018d27      0x16c NuttX/nuttx/sched/libsched.a(irq_initialize.o)
 .debug_info    0x0000000000018e93      0xa38 NuttX/nuttx/sched/libsched.a(sched_releasetcb.o)
 .debug_info    0x00000000000198cb      0x97b NuttX/nuttx/sched/libsched.a(sched_lock.o)
 .debug_info    0x000000000001a246      0xb16 NuttX/nuttx/sched/libsched.a(sched_unlock.o)
 .debug_info    0x000000000001ad5c      0x9f4 NuttX/nuttx/sched/libsched.a(task_exithook.o)
 .debug_info    0x000000000001b750      0x9bd NuttX/nuttx/sched/libsched.a(task_recover.o)
 .debug_info    0x000000000001c10d      0x86d NuttX/nuttx/sched/libsched.a(wd_recover.o)
 .debug_info    0x000000000001c97a      0x8c2 NuttX/nuttx/sched/libsched.a(group_leave.o)
 .debug_info    0x000000000001d23c      0xafe NuttX/nuttx/sched/libsched.a(sched_free.o)
 .debug_info    0x000000000001dd3a      0x812 NuttX/nuttx/sched/libsched.a(sem_recover.o)
 .debug_info    0x000000000001e54c      0xb25 NuttX/nuttx/sched/libsched.a(wd_cancel.o)
 .debug_info    0x000000000001f071      0x571 NuttX/nuttx/sched/libsched.a(wd_delete.o)
 .debug_info    0x000000000001f5e2      0x276 NuttX/nuttx/sched/libsched.a(wd_initialize.o)
 .debug_info    0x000000000001f858      0x36b NuttX/nuttx/arch/arm/src/libarch.a(stm32_allocateheap.o)
 .debug_info    0x000000000001fbc3      0x1b2 NuttX/nuttx/arch/arm/src/libarch.a(stm32_idle.o)
 .debug_info    0x000000000001fd75      0xb22 NuttX/nuttx/arch/arm/src/libarch.a(up_blocktask.o)
 .debug_info    0x0000000000020897      0x15d NuttX/nuttx/arch/arm/src/libarch.a(up_copyfullstate.o)
 .debug_info    0x00000000000209f4      0x969 NuttX/nuttx/arch/arm/src/libarch.a(up_createstack.o)
 .debug_info    0x000000000002135d      0x11d NuttX/nuttx/arch/arm/src/libarch.a(up_mdelay.o)
 .debug_info    0x000000000002147a      0xb3f NuttX/nuttx/arch/arm/src/libarch.a(up_exit.o)
 .debug_info    0x0000000000021fb9      0x2f8 NuttX/nuttx/arch/arm/src/libarch.a(up_initialize.o)
 .debug_info    0x00000000000222b1      0x772 NuttX/nuttx/arch/arm/src/libarch.a(up_initialstate.o)
 .debug_info    0x0000000000022a23      0x180 NuttX/nuttx/arch/arm/src/libarch.a(up_interruptcontext.o)
 .debug_info    0x0000000000022ba3      0xa4b NuttX/nuttx/arch/arm/src/libarch.a(up_releasepending.o)
 .debug_info    0x00000000000235ee      0x85e NuttX/nuttx/arch/arm/src/libarch.a(up_releasestack.o)
 .debug_info    0x0000000000023e4c      0x750 NuttX/nuttx/arch/arm/src/libarch.a(up_stackframe.o)
 .debug_info    0x000000000002459c      0xb19 NuttX/nuttx/arch/arm/src/libarch.a(up_unblocktask.o)
 .debug_info    0x00000000000250b5       0x26 NuttX/nuttx/arch/arm/src/libarch.a(up_fullcontextrestore.o)
 .debug_info    0x00000000000250db       0x26 NuttX/nuttx/arch/arm/src/libarch.a(up_switchcontext.o)
 .debug_info    0x0000000000025101      0x2d7 NuttX/nuttx/arch/arm/src/libarch.a(stm32_timerisr.o)
 .debug_info    0x00000000000253d8      0x110 NuttX/nuttx/libc/libc.a(sq_addlast.o)
 .debug_info    0x00000000000254e8      0x116 NuttX/nuttx/libc/libc.a(sq_remfirst.o)
 .debug_info    0x00000000000255fe      0x125 NuttX/nuttx/libc/libc.a(sq_remafter.o)
 .debug_info    0x0000000000025723      0x11c NuttX/nuttx/libc/libc.a(dq_addfirst.o)
 .debug_info    0x000000000002583f      0x138 NuttX/nuttx/libc/libc.a(dq_rem.o)
 .debug_info    0x0000000000025977      0x153 NuttX/nuttx/libc/libc.a(sem_setprotocol.o)
 .debug_info    0x0000000000025aca      0xb21 NuttX/nuttx/libc/libc.a(lib_libvsprintf.o)
 .debug_info    0x00000000000265eb      0x1a7 NuttX/nuttx/libc/libc.a(lib_nulloutstream.o)
 .debug_info    0x0000000000026792      0x17e NuttX/nuttx/libc/libc.a(lib_libnoflush.o)
 .debug_info    0x0000000000026910       0xee NuttX/nuttx/libc/libc.a(lib_memset.o)
 .debug_info    0x00000000000269fe       0xbd NuttX/nuttx/libc/libc.a(lib_strchr.o)
 .debug_info    0x0000000000026abb       0xdc NuttX/nuttx/libc/libc.a(lib_strlen.o)
 .debug_info    0x0000000000026b97       0xeb NuttX/nuttx/libc/libc.a(lib_strnlen.o)
 .debug_info    0x0000000000026c82      0x10c NuttX/nuttx/libc/libc.a(lib_strncpy.o)
 .debug_info    0x0000000000026d8e      0x1d5 NuttX/nuttx/drivers/libdrivers.a(syslog_initialize.o)
 .debug_info    0x0000000000026f63      0x1ee NuttX/nuttx/drivers/libdrivers.a(syslog_consolechannel.o)
 .debug_info    0x0000000000027151      0xb70 NuttX/nuttx/drivers/libdrivers.a(syslog_device.o)
 .debug_info    0x0000000000027cc1      0x4bf NuttX/nuttx/fs/libfs.a(fs_initialize.o)
 .debug_info    0x0000000000028180      0x9aa NuttX/nuttx/fs/libfs.a(fs_files.o)
 .debug_info    0x0000000000028b2a      0x4e1 NuttX/nuttx/fs/libfs.a(fs_inodeaddref.o)
 .debug_info    0x000000000002900b      0x50b NuttX/nuttx/fs/libfs.a(fs_inoderelease.o)
 .debug_info    0x0000000000029516      0x633 NuttX/nuttx/fs/libfs.a(fs_filedetach.o)
 .debug_info    0x0000000000029b49      0x51b NuttX/nuttx/fs/libfs.a(fs_close.o)
 .debug_info    0x000000000002a064      0x548 NuttX/nuttx/fs/libfs.a(fs_dupfd2.o)
 .debug_info    0x000000000002a5ac      0x54e NuttX/nuttx/fs/libfs.a(fs_getfilep.o)
 .debug_info    0x000000000002aafa      0x694 NuttX/nuttx/fs/libfs.a(fs_open.o)
 .debug_info    0x000000000002b18e      0x5e9 NuttX/nuttx/fs/libfs.a(fs_write.o)
 .debug_info    0x000000000002b777      0x57f NuttX/nuttx/fs/libfs.a(fs_inodefind.o)
 .debug_info    0x000000000002bcf6      0x4e7 NuttX/nuttx/fs/libfs.a(fs_inodefree.o)
 .debug_info    0x000000000002c1dd      0x25e NuttX/nuttx/mm/libmm.a(umm_initialize.o)
 .debug_info    0x000000000002c43b      0x25f NuttX/nuttx/mm/libmm.a(umm_sem.o)
 .debug_info    0x000000000002c69a      0x24e NuttX/nuttx/mm/libmm.a(umm_free.o)
 .debug_info    0x000000000002c8e8      0x279 NuttX/nuttx/mm/libmm.a(umm_malloc.o)
 .debug_info    0x000000000002cb61      0x365 NuttX/nuttx/mm/libmm.a(mm_initialize.o)
 .debug_info    0x000000000002cec6      0x2e7 NuttX/nuttx/mm/libmm.a(mm_free.o)
 .debug_info    0x000000000002d1ad      0x979 NuttX/nuttx/sched/libsched.a(sched_getfiles.o)
 .debug_info    0x000000000002db26      0xa4d NuttX/nuttx/sched/libsched.a(sched_addreadytorun.o)
 .debug_info    0x000000000002e573      0xa46 NuttX/nuttx/sched/libsched.a(sched_removereadytorun.o)
 .debug_info    0x000000000002efb9      0x9d8 NuttX/nuttx/sched/libsched.a(sched_addprioritized.o)
 .debug_info    0x000000000002f991      0xa5d NuttX/nuttx/sched/libsched.a(sched_mergepending.o)
 .debug_info    0x00000000000303ee      0xa00 NuttX/nuttx/sched/libsched.a(sched_addblocked.o)
 .debug_info    0x0000000000030dee      0x9d2 NuttX/nuttx/sched/libsched.a(sched_removeblocked.o)
 .debug_info    0x00000000000317c0      0x9d7 NuttX/nuttx/sched/libsched.a(sched_processtimer.o)
 .debug_info    0x0000000000032197      0x163 NuttX/nuttx/sched/libsched.a(sem_destroy.o)
 .debug_info    0x00000000000322fa      0xa37 NuttX/nuttx/sched/libsched.a(task_exit.o)
 .debug_info    0x0000000000032d31      0xb9b NuttX/nuttx/sched/libsched.a(task_terminate.o)
 .debug_info    0x00000000000338cc      0xcca NuttX/nuttx/sched/libsched.a(wd_start.o)
 .debug_info    0x0000000000034596      0x980 NuttX/nuttx/sched/libsched.a(sched_gettcb.o)
 .debug_info    0x0000000000034f16      0x110 NuttX/nuttx/libc/libc.a(sq_addfirst.o)
 .debug_info    0x0000000000035026      0x13f NuttX/nuttx/libc/libc.a(sq_addafter.o)
 .debug_info    0x0000000000035165      0x11c NuttX/nuttx/libc/libc.a(dq_addlast.o)
 .debug_info    0x0000000000035281      0x175 NuttX/nuttx/libc/libc.a(lib_strdup.o)
 .debug_info    0x00000000000353f6      0xfaf src/modules/px4iofirmware/libpx4iofirmware.a(px4io.c.obj)
 .debug_info    0x00000000000363a5      0xb72 src/modules/px4iofirmware/libpx4iofirmware.a(registers.c.obj)
 .debug_info    0x0000000000036f17      0x8a4 src/modules/px4iofirmware/libpx4iofirmware.a(safety.c.obj)
 .debug_info    0x00000000000377bb      0xac3 src/modules/px4iofirmware/libpx4iofirmware.a(serial.c.obj)
 .debug_info    0x000000000003827e      0x439 src/modules/px4iofirmware/libpx4iofirmware.a(pwm_limit.c.obj)
 .debug_info    0x00000000000386b7      0x634 src/modules/px4iofirmware/libpx4iofirmware.a(adc.c.obj)
 .debug_info    0x0000000000038ceb     0x1682 src/modules/px4iofirmware/libpx4iofirmware.a(controls.c.obj)
 .debug_info    0x000000000003a36d     0x1a7b src/modules/px4iofirmware/libpx4iofirmware.a(mixer.cpp.obj)
 .debug_info    0x000000000003bde8       0xf2 NuttX/apps/libapps.a(gnu_cxxinitialize.o)
 .debug_info    0x000000000003beda      0x11e NuttX/nuttx/arch/arm/src/libarch.a(up_udelay.o)
 .debug_info    0x000000000003bff8       0x95 NuttX/nuttx/arch/arm/src/libarch.a(up_systemreset.o)
 .debug_info    0x000000000003c08d      0x483 src/drivers/boards/px4io-v2/libdrivers_board.a(init.c.obj)
 .debug_info    0x000000000003c510     0x113f src/drivers/stm32/libdrivers_arch.a(drv_hrt.c.obj)
 .debug_info    0x000000000003d64f      0x76c src/drivers/stm32/libdrivers_arch.a(drv_pwm_servo.c.obj)
 .debug_info    0x000000000003ddbb     0x16bf src/drivers/stm32/libdrivers_arch.a(drv_io_timer.c.obj)
 .debug_info    0x000000000003f47a      0x400 src/drivers/boards/px4io-v2/libdrivers_board.a(timer_config.c.obj)
 .debug_info    0x000000000003f87a     0x1827 src/lib/mixer/libmixer.a(mixer_group.cpp.obj)
 .debug_info    0x00000000000410a1     0x1d35 src/lib/mixer/libmixer.a(mixer_helicopter.cpp.obj)
 .debug_info    0x0000000000042dd6     0x2be5 src/lib/mixer/libmixer.a(mixer_multirotor.cpp.obj)
 .debug_info    0x00000000000459bb     0x16a6 src/lib/mixer/libmixer.a(mixer_simple.cpp.obj)
 .debug_info    0x0000000000047061     0x138a src/lib/mixer/libmixer.a(mixer.cpp.obj)
 .debug_info    0x00000000000483eb      0xab3 src/lib/rc/librc.a(st24.cpp.obj)
 .debug_info    0x0000000000048e9e      0xc01 src/lib/rc/librc.a(sumd.cpp.obj)
 .debug_info    0x0000000000049a9f     0x1102 src/lib/rc/librc.a(sbus.cpp.obj)
 .debug_info    0x000000000004aba1     0x13ab src/lib/rc/librc.a(dsm.cpp.obj)
 .debug_info    0x000000000004bf4c      0x7d1 src/lib/rc/librc.a(common_rc.cpp.obj)
 .debug_info    0x000000000004c71d       0x98 NuttX/nuttx/libxx/libcxx.a(libxx_cxapurevirtual.o)
 .debug_info    0x000000000004c7b5      0x603 NuttX/nuttx/libxx/libcxx.a(libxx_eabi_atexit.o)
 .debug_info    0x000000000004cdb8      0x5de NuttX/nuttx/libxx/libcxx.a(libxx_cxa_atexit.o)
 .debug_info    0x000000000004d396      0x5ac NuttX/nuttx/libxx/libcxx.a(libxx_delete.o)
 .debug_info    0x000000000004d942      0x5ac NuttX/nuttx/libxx/libcxx.a(libxx_deletea.o)
 .debug_info    0x000000000004deee      0x75c NuttX/nuttx/libxx/libcxx.a(libxx_new.o)
 .debug_info    0x000000000004e64a      0x75c NuttX/nuttx/libxx/libcxx.a(libxx_newa.o)
 .debug_info    0x000000000004eda6      0x1a3 NuttX/nuttx/libc/libc.a(lib_crc32.o)
 .debug_info    0x000000000004ef49      0x141 NuttX/nuttx/libc/libc.a(sq_rem.o)
 .debug_info    0x000000000004f08a      0x184 NuttX/nuttx/libc/libc.a(lib_printf.o)
 .debug_info    0x000000000004f20e      0x2f6 NuttX/nuttx/libc/libc.a(lib_vsnprintf.o)
 .debug_info    0x000000000004f504      0x22a NuttX/nuttx/libc/libc.a(lib_memoutstream.o)
 .debug_info    0x000000000004f72e      0x6ed NuttX/nuttx/libc/libc.a(lib_sscanf.o)
 .debug_info    0x000000000004fe1b      0x1d6 NuttX/nuttx/libc/libc.a(lib_strtol.o)
 .debug_info    0x000000000004fff1      0x1eb NuttX/nuttx/libc/libc.a(lib_strtoul.o)
 .debug_info    0x00000000000501dc      0x159 NuttX/nuttx/libc/libc.a(lib_checkbase.o)
 .debug_info    0x0000000000050335      0x148 NuttX/nuttx/libc/libc.a(lib_isbasedigit.o)
 .debug_info    0x000000000005047d       0xfe NuttX/nuttx/libc/libc.a(lib_memchr.o)
 .debug_info    0x000000000005057b      0x10c NuttX/nuttx/libc/libc.a(lib_memmove.o)
 .debug_info    0x0000000000050687      0x152 NuttX/nuttx/libc/libc.a(lib_skipspace.o)
 .debug_info    0x00000000000507d9       0xc8 NuttX/nuttx/libc/libc.a(lib_strcmp.o)
 .debug_info    0x00000000000508a1      0x105 NuttX/nuttx/libc/libc.a(lib_strcspn.o)
 .debug_info    0x00000000000509a6      0x194 NuttX/nuttx/libc/libc.a(lib_tcgetattr.o)
 .debug_info    0x0000000000050b3a      0x1a8 NuttX/nuttx/libc/libc.a(lib_tcsetattr.o)
 .debug_info    0x0000000000050ce2      0x5ed NuttX/nuttx/fs/libfs.a(fs_ioctl.o)
 .debug_info    0x00000000000512cf      0x5ce NuttX/nuttx/fs/libfs.a(fs_read.o)
 .debug_info    0x000000000005189d      0x297 NuttX/nuttx/mm/libmm.a(umm_mallinfo.o)
 .debug_info    0x0000000000051b34      0x31f NuttX/nuttx/mm/libmm.a(mm_mallinfo.o)
 .debug_info    0x0000000000051e53      0xee4 src/lib/perf/libperf.a(perf_counter.c.obj)

.debug_line     0x0000000000000000    0x1f3f2
 *(.debug_line)
 .debug_line    0x0000000000000000      0x2bf NuttX/nuttx/arch/arm/src/libarch.a(stm32_start.o)
 .debug_line    0x00000000000002bf      0x298 NuttX/nuttx/arch/arm/src/libarch.a(stm32_rcc.o)
 .debug_line    0x0000000000000557      0x267 NuttX/nuttx/arch/arm/src/libarch.a(stm32_gpio.o)
 .debug_line    0x00000000000007be      0x215 NuttX/nuttx/arch/arm/src/libarch.a(stm32_lowputc.o)
 .debug_line    0x00000000000009d3      0x8ef NuttX/nuttx/arch/arm/src/libarch.a(stm32_serial.o)
 .debug_line    0x00000000000012c2      0x1cc NuttX/nuttx/arch/arm/src/libarch.a(up_modifyreg32.o)
 .debug_line    0x000000000000148e      0x13d NuttX/nuttx/arch/arm/src/libarch.a(up_vectors.o)
 .debug_line    0x00000000000015cb       0x76 NuttX/nuttx/arch/arm/src/libarch.a(up_exception.o)
 .debug_line    0x0000000000001641      0x33c NuttX/nuttx/arch/arm/src/libarch.a(stm32_irq.o)
 .debug_line    0x000000000000197d      0x589 NuttX/nuttx/arch/arm/src/libarch.a(stm32_dma.o)
 .debug_line    0x0000000000001f06      0x500 NuttX/nuttx/arch/arm/src/libarch.a(up_assert.o)
 .debug_line    0x0000000000002406      0x233 NuttX/nuttx/arch/arm/src/libarch.a(up_doirq.o)
 .debug_line    0x0000000000002639      0x239 NuttX/nuttx/arch/arm/src/libarch.a(up_hardfault.o)
 .debug_line    0x0000000000002872      0x1e3 NuttX/nuttx/arch/arm/src/libarch.a(up_svcall.o)
 .debug_line    0x0000000000002a55      0x3ae NuttX/nuttx/arch/arm/src/libarch.a(up_checkstack.o)
 .debug_line    0x0000000000002e03       0xf4 NuttX/nuttx/libc/libc.a(arch_memcpy.o)
 .debug_line    0x0000000000002ef7      0x116 NuttX/nuttx/libc/libc.a(sem_init.o)
 .debug_line    0x000000000000300d      0x15d NuttX/nuttx/libc/libc.a(lib_abort.o)
 .debug_line    0x000000000000316a       0x9b NuttX/nuttx/libc/libc.a(lib_strcpy.o)
 .debug_line    0x0000000000003205      0x1f4 NuttX/nuttx/libc/libc.a(lib_syslog.o)
 .debug_line    0x00000000000033f9      0x195 NuttX/nuttx/libc/libc.a(lib_setlogmask.o)
 .debug_line    0x000000000000358e       0xff NuttX/nuttx/libc/libc.a(lib_cfgetspeed.o)
 .debug_line    0x000000000000368d      0x100 NuttX/nuttx/libc/libc.a(lib_cfsetspeed.o)
 .debug_line    0x000000000000378d      0x693 NuttX/nuttx/drivers/libdrivers.a(serial.o)
 .debug_line    0x0000000000003e20      0x273 NuttX/nuttx/drivers/libdrivers.a(serial_io.o)
 .debug_line    0x0000000000004093      0x23e NuttX/nuttx/drivers/libdrivers.a(vsyslog.o)
 .debug_line    0x00000000000042d1      0x1fa NuttX/nuttx/drivers/libdrivers.a(syslog_stream.o)
 .debug_line    0x00000000000044cb      0x1f6 NuttX/nuttx/drivers/libdrivers.a(syslog_emergstream.o)
 .debug_line    0x00000000000046c1      0x1e4 NuttX/nuttx/drivers/libdrivers.a(syslog_putc.o)
 .debug_line    0x00000000000048a5       0xb4 NuttX/nuttx/drivers/libdrivers.a(syslog_force.o)
 .debug_line    0x0000000000004959      0x1d4 NuttX/nuttx/drivers/libdrivers.a(syslog_channel.o)
 .debug_line    0x0000000000004b2d      0x28d NuttX/nuttx/fs/libfs.a(fs_registerdriver.o)
 .debug_line    0x0000000000004dba      0x2d2 NuttX/nuttx/fs/libfs.a(fs_inode.o)
 .debug_line    0x000000000000508c      0x309 NuttX/nuttx/fs/libfs.a(fs_inodereserve.o)
 .debug_line    0x0000000000005395      0x2f4 NuttX/nuttx/fs/libfs.a(fs_inodesearch.o)
 .debug_line    0x0000000000005689      0x1b8 NuttX/nuttx/mm/libmm.a(umm_zalloc.o)
 .debug_line    0x0000000000005841      0x180 NuttX/nuttx/mm/libmm.a(umm_globals.o)
 .debug_line    0x00000000000059c1      0x1b9 NuttX/nuttx/mm/libmm.a(mm_zalloc.o)
 .debug_line    0x0000000000005b7a      0x1dc NuttX/nuttx/mm/libmm.a(mm_malloc.o)
 .debug_line    0x0000000000005d56      0x23c NuttX/nuttx/mm/libmm.a(mm_sem.o)
 .debug_line    0x0000000000005f92      0x1ca NuttX/nuttx/mm/libmm.a(mm_addfreechunk.o)
 .debug_line    0x000000000000615c      0x1b6 NuttX/nuttx/mm/libmm.a(mm_size2ndx.o)
 .debug_line    0x0000000000006312      0x324 NuttX/nuttx/sched/libsched.a(errno_getptr.o)
 .debug_line    0x0000000000006636      0x4d0 NuttX/nuttx/sched/libsched.a(os_start.o)
 .debug_line    0x0000000000006b06      0x1cc NuttX/nuttx/sched/libsched.a(os_bringup.o)
 .debug_line    0x0000000000006cd2      0x20a NuttX/nuttx/sched/libsched.a(irq_attach.o)
 .debug_line    0x0000000000006edc      0x17c NuttX/nuttx/sched/libsched.a(irq_dispatch.o)
 .debug_line    0x0000000000007058      0x1e1 NuttX/nuttx/sched/libsched.a(irq_unexpectedisr.o)
 .debug_line    0x0000000000007239      0x358 NuttX/nuttx/sched/libsched.a(sched_garbage.o)
 .debug_line    0x0000000000007591      0x31e NuttX/nuttx/sched/libsched.a(sched_foreach.o)
 .debug_line    0x00000000000078af      0x31c NuttX/nuttx/sched/libsched.a(sched_idletask.o)
 .debug_line    0x0000000000007bcb      0x361 NuttX/nuttx/sched/libsched.a(sem_wait.o)
 .debug_line    0x0000000000007f2c      0x33a NuttX/nuttx/sched/libsched.a(sem_trywait.o)
 .debug_line    0x0000000000008266      0x35b NuttX/nuttx/sched/libsched.a(sem_post.o)
 .debug_line    0x00000000000085c1      0x204 NuttX/nuttx/sched/libsched.a(sem_reset.o)
 .debug_line    0x00000000000087c5      0x3af NuttX/nuttx/sched/libsched.a(task_create.o)
 .debug_line    0x0000000000008b74      0x3d9 NuttX/nuttx/sched/libsched.a(task_setup.o)
 .debug_line    0x0000000000008f4d      0x2b9 NuttX/nuttx/sched/libsched.a(task_activate.o)
 .debug_line    0x0000000000009206      0x31d NuttX/nuttx/sched/libsched.a(task_start.o)
 .debug_line    0x0000000000009523      0x301 NuttX/nuttx/sched/libsched.a(task_getpid.o)
 .debug_line    0x0000000000009824      0x319 NuttX/nuttx/sched/libsched.a(exit.o)
 .debug_line    0x0000000000009b3d      0x315 NuttX/nuttx/sched/libsched.a(group_create.o)
 .debug_line    0x0000000000009e52      0x304 NuttX/nuttx/sched/libsched.a(group_setupidlefiles.o)
 .debug_line    0x000000000000a156      0x30c NuttX/nuttx/sched/libsched.a(group_setuptaskfiles.o)
 .debug_line    0x000000000000a462      0x177 NuttX/nuttx/sched/libsched.a(irq_initialize.o)
 .debug_line    0x000000000000a5d9      0x358 NuttX/nuttx/sched/libsched.a(sched_releasetcb.o)
 .debug_line    0x000000000000a931      0x320 NuttX/nuttx/sched/libsched.a(sched_lock.o)
 .debug_line    0x000000000000ac51      0x356 NuttX/nuttx/sched/libsched.a(sched_unlock.o)
 .debug_line    0x000000000000afa7      0x346 NuttX/nuttx/sched/libsched.a(task_exithook.o)
 .debug_line    0x000000000000b2ed      0x332 NuttX/nuttx/sched/libsched.a(task_recover.o)
 .debug_line    0x000000000000b61f      0x2c1 NuttX/nuttx/sched/libsched.a(wd_recover.o)
 .debug_line    0x000000000000b8e0      0x31f NuttX/nuttx/sched/libsched.a(group_leave.o)
 .debug_line    0x000000000000bbff      0x34a NuttX/nuttx/sched/libsched.a(sched_free.o)
 .debug_line    0x000000000000bf49      0x2ac NuttX/nuttx/sched/libsched.a(sem_recover.o)
 .debug_line    0x000000000000c1f5      0x358 NuttX/nuttx/sched/libsched.a(wd_cancel.o)
 .debug_line    0x000000000000c54d      0x2ce NuttX/nuttx/sched/libsched.a(wd_delete.o)
 .debug_line    0x000000000000c81b      0x172 NuttX/nuttx/sched/libsched.a(wd_initialize.o)
 .debug_line    0x000000000000c98d      0x2f1 NuttX/nuttx/arch/arm/src/libarch.a(stm32_allocateheap.o)
 .debug_line    0x000000000000cc7e      0x22c NuttX/nuttx/arch/arm/src/libarch.a(stm32_idle.o)
 .debug_line    0x000000000000ceaa      0x3e3 NuttX/nuttx/arch/arm/src/libarch.a(up_blocktask.o)
 .debug_line    0x000000000000d28d      0x16b NuttX/nuttx/arch/arm/src/libarch.a(up_copyfullstate.o)
 .debug_line    0x000000000000d3f8      0x40d NuttX/nuttx/arch/arm/src/libarch.a(up_createstack.o)
 .debug_line    0x000000000000d805      0x174 NuttX/nuttx/arch/arm/src/libarch.a(up_mdelay.o)
 .debug_line    0x000000000000d979      0x419 NuttX/nuttx/arch/arm/src/libarch.a(up_exit.o)
 .debug_line    0x000000000000dd92      0x2f8 NuttX/nuttx/arch/arm/src/libarch.a(up_initialize.o)
 .debug_line    0x000000000000e08a      0x317 NuttX/nuttx/arch/arm/src/libarch.a(up_initialstate.o)
 .debug_line    0x000000000000e3a1      0x174 NuttX/nuttx/arch/arm/src/libarch.a(up_interruptcontext.o)
 .debug_line    0x000000000000e515      0x3c8 NuttX/nuttx/arch/arm/src/libarch.a(up_releasepending.o)
 .debug_line    0x000000000000e8dd      0x314 NuttX/nuttx/arch/arm/src/libarch.a(up_releasestack.o)
 .debug_line    0x000000000000ebf1      0x2d6 NuttX/nuttx/arch/arm/src/libarch.a(up_stackframe.o)
 .debug_line    0x000000000000eec7      0x43d NuttX/nuttx/arch/arm/src/libarch.a(up_unblocktask.o)
 .debug_line    0x000000000000f304       0x57 NuttX/nuttx/arch/arm/src/libarch.a(up_fullcontextrestore.o)
 .debug_line    0x000000000000f35b       0x53 NuttX/nuttx/arch/arm/src/libarch.a(up_switchcontext.o)
 .debug_line    0x000000000000f3ae      0x2bf NuttX/nuttx/arch/arm/src/libarch.a(stm32_timerisr.o)
 .debug_line    0x000000000000f66d       0x99 NuttX/nuttx/libc/libc.a(sq_addlast.o)
 .debug_line    0x000000000000f706       0x9b NuttX/nuttx/libc/libc.a(sq_remfirst.o)
 .debug_line    0x000000000000f7a1       0xa5 NuttX/nuttx/libc/libc.a(sq_remafter.o)
 .debug_line    0x000000000000f846       0x9b NuttX/nuttx/libc/libc.a(dq_addfirst.o)
 .debug_line    0x000000000000f8e1       0x9d NuttX/nuttx/libc/libc.a(dq_rem.o)
 .debug_line    0x000000000000f97e      0x180 NuttX/nuttx/libc/libc.a(sem_setprotocol.o)
 .debug_line    0x000000000000fafe      0x3c0 NuttX/nuttx/libc/libc.a(lib_libvsprintf.o)
 .debug_line    0x000000000000febe      0x177 NuttX/nuttx/libc/libc.a(lib_nulloutstream.o)
 .debug_line    0x0000000000010035      0x160 NuttX/nuttx/libc/libc.a(lib_libnoflush.o)
 .debug_line    0x0000000000010195      0x15c NuttX/nuttx/libc/libc.a(lib_memset.o)
 .debug_line    0x00000000000102f1       0x99 NuttX/nuttx/libc/libc.a(lib_strchr.o)
 .debug_line    0x000000000001038a      0x152 NuttX/nuttx/libc/libc.a(lib_strlen.o)
 .debug_line    0x00000000000104dc      0x15b NuttX/nuttx/libc/libc.a(lib_strnlen.o)
 .debug_line    0x0000000000010637      0x15f NuttX/nuttx/libc/libc.a(lib_strncpy.o)
 .debug_line    0x0000000000010796      0x1c6 NuttX/nuttx/drivers/libdrivers.a(syslog_initialize.o)
 .debug_line    0x000000000001095c      0x1ca NuttX/nuttx/drivers/libdrivers.a(syslog_consolechannel.o)
 .debug_line    0x0000000000010b26      0x465 NuttX/nuttx/drivers/libdrivers.a(syslog_device.o)
 .debug_line    0x0000000000010f8b      0x26e NuttX/nuttx/fs/libfs.a(fs_initialize.o)
 .debug_line    0x00000000000111f9      0x3ba NuttX/nuttx/fs/libfs.a(fs_files.o)
 .debug_line    0x00000000000115b3      0x27c NuttX/nuttx/fs/libfs.a(fs_inodeaddref.o)
 .debug_line    0x000000000001182f      0x28c NuttX/nuttx/fs/libfs.a(fs_inoderelease.o)
 .debug_line    0x0000000000011abb      0x2c8 NuttX/nuttx/fs/libfs.a(fs_filedetach.o)
 .debug_line    0x0000000000011d83      0x293 NuttX/nuttx/fs/libfs.a(fs_close.o)
 .debug_line    0x0000000000012016      0x296 NuttX/nuttx/fs/libfs.a(fs_dupfd2.o)
 .debug_line    0x00000000000122ac      0x29e NuttX/nuttx/fs/libfs.a(fs_getfilep.o)
 .debug_line    0x000000000001254a      0x2eb NuttX/nuttx/fs/libfs.a(fs_open.o)
 .debug_line    0x0000000000012835      0x2c4 NuttX/nuttx/fs/libfs.a(fs_write.o)
 .debug_line    0x0000000000012af9      0x27d NuttX/nuttx/fs/libfs.a(fs_inodefind.o)
 .debug_line    0x0000000000012d76      0x28b NuttX/nuttx/fs/libfs.a(fs_inodefree.o)
 .debug_line    0x0000000000013001      0x1ae NuttX/nuttx/mm/libmm.a(umm_initialize.o)
 .debug_line    0x00000000000131af      0x1b8 NuttX/nuttx/mm/libmm.a(umm_sem.o)
 .debug_line    0x0000000000013367      0x1b3 NuttX/nuttx/mm/libmm.a(umm_free.o)
 .debug_line    0x000000000001351a      0x1c4 NuttX/nuttx/mm/libmm.a(umm_malloc.o)
 .debug_line    0x00000000000136de      0x211 NuttX/nuttx/mm/libmm.a(mm_initialize.o)
 .debug_line    0x00000000000138ef      0x1c8 NuttX/nuttx/mm/libmm.a(mm_free.o)
 .debug_line    0x0000000000013ab7      0x305 NuttX/nuttx/sched/libsched.a(sched_getfiles.o)
 .debug_line    0x0000000000013dbc      0x337 NuttX/nuttx/sched/libsched.a(sched_addreadytorun.o)
 .debug_line    0x00000000000140f3      0x337 NuttX/nuttx/sched/libsched.a(sched_removereadytorun.o)
 .debug_line    0x000000000001442a      0x34b NuttX/nuttx/sched/libsched.a(sched_addprioritized.o)
 .debug_line    0x0000000000014775      0x365 NuttX/nuttx/sched/libsched.a(sched_mergepending.o)
 .debug_line    0x0000000000014ada      0x315 NuttX/nuttx/sched/libsched.a(sched_addblocked.o)
 .debug_line    0x0000000000014def      0x316 NuttX/nuttx/sched/libsched.a(sched_removeblocked.o)
 .debug_line    0x0000000000015105      0x346 NuttX/nuttx/sched/libsched.a(sched_processtimer.o)
 .debug_line    0x000000000001544b      0x176 NuttX/nuttx/sched/libsched.a(sem_destroy.o)
 .debug_line    0x00000000000155c1      0x32a NuttX/nuttx/sched/libsched.a(task_exit.o)
 .debug_line    0x00000000000158eb      0x340 NuttX/nuttx/sched/libsched.a(task_terminate.o)
 .debug_line    0x0000000000015c2b      0x43b NuttX/nuttx/sched/libsched.a(wd_start.o)
 .debug_line    0x0000000000016066      0x308 NuttX/nuttx/sched/libsched.a(sched_gettcb.o)
 .debug_line    0x000000000001636e       0x99 NuttX/nuttx/libc/libc.a(sq_addfirst.o)
 .debug_line    0x0000000000016407       0xa1 NuttX/nuttx/libc/libc.a(sq_addafter.o)
 .debug_line    0x00000000000164a8       0x9a NuttX/nuttx/libc/libc.a(dq_addlast.o)
 .debug_line    0x0000000000016542      0x16b NuttX/nuttx/libc/libc.a(lib_strdup.o)
 .debug_line    0x00000000000166ad      0x3e8 src/modules/px4iofirmware/libpx4iofirmware.a(px4io.c.obj)
 .debug_line    0x0000000000016a95      0x460 src/modules/px4iofirmware/libpx4iofirmware.a(registers.c.obj)
 .debug_line    0x0000000000016ef5      0x297 src/modules/px4iofirmware/libpx4iofirmware.a(safety.c.obj)
 .debug_line    0x000000000001718c      0x358 src/modules/px4iofirmware/libpx4iofirmware.a(serial.c.obj)
 .debug_line    0x00000000000174e4      0x1b4 src/modules/px4iofirmware/libpx4iofirmware.a(pwm_limit.c.obj)
 .debug_line    0x0000000000017698      0x24c src/modules/px4iofirmware/libpx4iofirmware.a(adc.c.obj)
 .debug_line    0x00000000000178e4      0x62a src/modules/px4iofirmware/libpx4iofirmware.a(controls.c.obj)
 .debug_line    0x0000000000017f0e      0x72d src/modules/px4iofirmware/libpx4iofirmware.a(mixer.cpp.obj)
 .debug_line    0x000000000001863b      0x10a NuttX/apps/libapps.a(gnu_cxxinitialize.o)
 .debug_line    0x0000000000018745      0x203 NuttX/nuttx/arch/arm/src/libarch.a(up_udelay.o)
 .debug_line    0x0000000000018948       0xf6 NuttX/nuttx/arch/arm/src/libarch.a(up_systemreset.o)
 .debug_line    0x0000000000018a3e      0x186 src/drivers/boards/px4io-v2/libdrivers_board.a(init.c.obj)
 .debug_line    0x0000000000018bc4      0x45c src/drivers/stm32/libdrivers_arch.a(drv_hrt.c.obj)
 .debug_line    0x0000000000019020      0x29b src/drivers/stm32/libdrivers_arch.a(drv_pwm_servo.c.obj)
 .debug_line    0x00000000000192bb      0x588 src/drivers/stm32/libdrivers_arch.a(drv_io_timer.c.obj)
 .debug_line    0x0000000000019843      0x188 src/drivers/boards/px4io-v2/libdrivers_board.a(timer_config.c.obj)
 .debug_line    0x00000000000199cb      0x3c4 src/lib/mixer/libmixer.a(mixer_group.cpp.obj)
 .debug_line    0x0000000000019d8f      0x528 src/lib/mixer/libmixer.a(mixer_helicopter.cpp.obj)
 .debug_line    0x000000000001a2b7      0x70c src/lib/mixer/libmixer.a(mixer_multirotor.cpp.obj)
 .debug_line    0x000000000001a9c3      0x3eb src/lib/mixer/libmixer.a(mixer_simple.cpp.obj)
 .debug_line    0x000000000001adae      0x3e1 src/lib/mixer/libmixer.a(mixer.cpp.obj)
 .debug_line    0x000000000001b18f      0x2c9 src/lib/rc/librc.a(st24.cpp.obj)
 .debug_line    0x000000000001b458      0x2fa src/lib/rc/librc.a(sumd.cpp.obj)
 .debug_line    0x000000000001b752      0x3cc src/lib/rc/librc.a(sbus.cpp.obj)
 .debug_line    0x000000000001bb1e      0x42d src/lib/rc/librc.a(dsm.cpp.obj)
 .debug_line    0x000000000001bf4b      0x1d0 src/lib/rc/librc.a(common_rc.cpp.obj)
 .debug_line    0x000000000001c11b       0x9c NuttX/nuttx/libxx/libcxx.a(libxx_cxapurevirtual.o)
 .debug_line    0x000000000001c1b7      0x1c1 NuttX/nuttx/libxx/libcxx.a(libxx_eabi_atexit.o)
 .debug_line    0x000000000001c378      0x1c1 NuttX/nuttx/libxx/libcxx.a(libxx_cxa_atexit.o)
 .debug_line    0x000000000001c539      0x1ba NuttX/nuttx/libxx/libcxx.a(libxx_delete.o)
 .debug_line    0x000000000001c6f3      0x1bb NuttX/nuttx/libxx/libcxx.a(libxx_deletea.o)
 .debug_line    0x000000000001c8ae      0x1c5 NuttX/nuttx/libxx/libcxx.a(libxx_new.o)
 .debug_line    0x000000000001ca73      0x1c6 NuttX/nuttx/libxx/libcxx.a(libxx_newa.o)
 .debug_line    0x000000000001cc39      0x166 NuttX/nuttx/libc/libc.a(lib_crc32.o)
 .debug_line    0x000000000001cd9f       0xa3 NuttX/nuttx/libc/libc.a(sq_rem.o)
 .debug_line    0x000000000001ce42      0x1d7 NuttX/nuttx/libc/libc.a(lib_printf.o)
 .debug_line    0x000000000001d019      0x237 NuttX/nuttx/libc/libc.a(lib_vsnprintf.o)
 .debug_line    0x000000000001d250      0x1d9 NuttX/nuttx/libc/libc.a(lib_memoutstream.o)
 .debug_line    0x000000000001d429      0x358 NuttX/nuttx/libc/libc.a(lib_sscanf.o)
 .debug_line    0x000000000001d781      0x196 NuttX/nuttx/libc/libc.a(lib_strtol.o)
 .debug_line    0x000000000001d917      0x193 NuttX/nuttx/libc/libc.a(lib_strtoul.o)
 .debug_line    0x000000000001daaa      0x18c NuttX/nuttx/libc/libc.a(lib_checkbase.o)
 .debug_line    0x000000000001dc36      0x17e NuttX/nuttx/libc/libc.a(lib_isbasedigit.o)
 .debug_line    0x000000000001ddb4      0x157 NuttX/nuttx/libc/libc.a(lib_memchr.o)
 .debug_line    0x000000000001df0b      0x15a NuttX/nuttx/libc/libc.a(lib_memmove.o)
 .debug_line    0x000000000001e065      0x16d NuttX/nuttx/libc/libc.a(lib_skipspace.o)
 .debug_line    0x000000000001e1d2       0x9e NuttX/nuttx/libc/libc.a(lib_strcmp.o)
 .debug_line    0x000000000001e270      0x15c NuttX/nuttx/libc/libc.a(lib_strcspn.o)
 .debug_line    0x000000000001e3cc      0x153 NuttX/nuttx/libc/libc.a(lib_tcgetattr.o)
 .debug_line    0x000000000001e51f      0x155 NuttX/nuttx/libc/libc.a(lib_tcsetattr.o)
 .debug_line    0x000000000001e674      0x2c0 NuttX/nuttx/fs/libfs.a(fs_ioctl.o)
 .debug_line    0x000000000001e934      0x2c3 NuttX/nuttx/fs/libfs.a(fs_read.o)
 .debug_line    0x000000000001ebf7      0x1bf NuttX/nuttx/mm/libmm.a(umm_mallinfo.o)
 .debug_line    0x000000000001edb6      0x1d9 NuttX/nuttx/mm/libmm.a(mm_mallinfo.o)
 .debug_line    0x000000000001ef8f      0x463 src/lib/perf/libperf.a(perf_counter.c.obj)

.debug_pubnames
 *(.debug_pubnames)

.debug_aranges  0x0000000000000000     0x2198
 *(.debug_aranges)
 .debug_aranges
                0x0000000000000000       0x28 NuttX/nuttx/arch/arm/src/libarch.a(stm32_start.o)
 .debug_aranges
                0x0000000000000028       0x20 NuttX/nuttx/arch/arm/src/libarch.a(stm32_rcc.o)
 .debug_aranges
                0x0000000000000048       0x40 NuttX/nuttx/arch/arm/src/libarch.a(stm32_gpio.o)
 .debug_aranges
                0x0000000000000088       0x28 NuttX/nuttx/arch/arm/src/libarch.a(stm32_lowputc.o)
 .debug_aranges
                0x00000000000000b0      0x100 NuttX/nuttx/arch/arm/src/libarch.a(stm32_serial.o)
 .debug_aranges
                0x00000000000001b0       0x20 NuttX/nuttx/arch/arm/src/libarch.a(up_modifyreg32.o)
 .debug_aranges
                0x00000000000001d0       0x18 NuttX/nuttx/arch/arm/src/libarch.a(up_vectors.o)
 .debug_aranges
                0x00000000000001e8       0x20 NuttX/nuttx/arch/arm/src/libarch.a(up_exception.o)
 .debug_aranges
                0x0000000000000208       0x40 NuttX/nuttx/arch/arm/src/libarch.a(stm32_irq.o)
 .debug_aranges
                0x0000000000000248       0x60 NuttX/nuttx/arch/arm/src/libarch.a(stm32_dma.o)
 .debug_aranges
                0x00000000000002a8       0x28 NuttX/nuttx/arch/arm/src/libarch.a(up_assert.o)
 .debug_aranges
                0x00000000000002d0       0x20 NuttX/nuttx/arch/arm/src/libarch.a(up_doirq.o)
 .debug_aranges
                0x00000000000002f0       0x20 NuttX/nuttx/arch/arm/src/libarch.a(up_hardfault.o)
 .debug_aranges
                0x0000000000000310       0x20 NuttX/nuttx/arch/arm/src/libarch.a(up_svcall.o)
 .debug_aranges
                0x0000000000000330       0x38 NuttX/nuttx/arch/arm/src/libarch.a(up_checkstack.o)
 .debug_aranges
                0x0000000000000368       0x20 NuttX/nuttx/libc/libc.a(arch_memcpy.o)
 .debug_aranges
                0x0000000000000388       0x20 NuttX/nuttx/libc/libc.a(sem_init.o)
 .debug_aranges
                0x00000000000003a8       0x20 NuttX/nuttx/libc/libc.a(lib_abort.o)
 .debug_aranges
                0x00000000000003c8       0x20 NuttX/nuttx/libc/libc.a(lib_strcpy.o)
 .debug_aranges
                0x00000000000003e8       0x28 NuttX/nuttx/libc/libc.a(lib_syslog.o)
 .debug_aranges
                0x0000000000000410       0x20 NuttX/nuttx/libc/libc.a(lib_setlogmask.o)
 .debug_aranges
                0x0000000000000430       0x20 NuttX/nuttx/libc/libc.a(lib_cfgetspeed.o)
 .debug_aranges
                0x0000000000000450       0x20 NuttX/nuttx/libc/libc.a(lib_cfsetspeed.o)
 .debug_aranges
                0x0000000000000470       0x70 NuttX/nuttx/drivers/libdrivers.a(serial.o)
 .debug_aranges
                0x00000000000004e0       0x28 NuttX/nuttx/drivers/libdrivers.a(serial_io.o)
 .debug_aranges
                0x0000000000000508       0x20 NuttX/nuttx/drivers/libdrivers.a(vsyslog.o)
 .debug_aranges
                0x0000000000000528       0x28 NuttX/nuttx/drivers/libdrivers.a(syslog_stream.o)
 .debug_aranges
                0x0000000000000550       0x28 NuttX/nuttx/drivers/libdrivers.a(syslog_emergstream.o)
 .debug_aranges
                0x0000000000000578       0x20 NuttX/nuttx/drivers/libdrivers.a(syslog_putc.o)
 .debug_aranges
                0x0000000000000598       0x20 NuttX/nuttx/drivers/libdrivers.a(syslog_force.o)
 .debug_aranges
                0x00000000000005b8       0x28 NuttX/nuttx/drivers/libdrivers.a(syslog_channel.o)
 .debug_aranges
                0x00000000000005e0       0x20 NuttX/nuttx/fs/libfs.a(fs_registerdriver.o)
 .debug_aranges
                0x0000000000000600       0x30 NuttX/nuttx/fs/libfs.a(fs_inode.o)
 .debug_aranges
                0x0000000000000630       0x28 NuttX/nuttx/fs/libfs.a(fs_inodereserve.o)
 .debug_aranges
                0x0000000000000658       0x28 NuttX/nuttx/fs/libfs.a(fs_inodesearch.o)
 .debug_aranges
                0x0000000000000680       0x20 NuttX/nuttx/mm/libmm.a(umm_zalloc.o)
 .debug_aranges
                0x00000000000006a0       0x18 NuttX/nuttx/mm/libmm.a(umm_globals.o)
 .debug_aranges
                0x00000000000006b8       0x20 NuttX/nuttx/mm/libmm.a(mm_zalloc.o)
 .debug_aranges
                0x00000000000006d8       0x20 NuttX/nuttx/mm/libmm.a(mm_malloc.o)
 .debug_aranges
                0x00000000000006f8       0x38 NuttX/nuttx/mm/libmm.a(mm_sem.o)
 .debug_aranges
                0x0000000000000730       0x20 NuttX/nuttx/mm/libmm.a(mm_addfreechunk.o)
 .debug_aranges
                0x0000000000000750       0x20 NuttX/nuttx/mm/libmm.a(mm_size2ndx.o)
 .debug_aranges
                0x0000000000000770       0x20 NuttX/nuttx/sched/libsched.a(errno_getptr.o)
 .debug_aranges
                0x0000000000000790       0x20 NuttX/nuttx/sched/libsched.a(os_start.o)
 .debug_aranges
                0x00000000000007b0       0x20 NuttX/nuttx/sched/libsched.a(os_bringup.o)
 .debug_aranges
                0x00000000000007d0       0x20 NuttX/nuttx/sched/libsched.a(irq_attach.o)
 .debug_aranges
                0x00000000000007f0       0x20 NuttX/nuttx/sched/libsched.a(irq_dispatch.o)
 .debug_aranges
                0x0000000000000810       0x20 NuttX/nuttx/sched/libsched.a(irq_unexpectedisr.o)
 .debug_aranges
                0x0000000000000830       0x28 NuttX/nuttx/sched/libsched.a(sched_garbage.o)
 .debug_aranges
                0x0000000000000858       0x20 NuttX/nuttx/sched/libsched.a(sched_foreach.o)
 .debug_aranges
                0x0000000000000878       0x20 NuttX/nuttx/sched/libsched.a(sched_idletask.o)
 .debug_aranges
                0x0000000000000898       0x20 NuttX/nuttx/sched/libsched.a(sem_wait.o)
 .debug_aranges
                0x00000000000008b8       0x20 NuttX/nuttx/sched/libsched.a(sem_trywait.o)
 .debug_aranges
                0x00000000000008d8       0x20 NuttX/nuttx/sched/libsched.a(sem_post.o)
 .debug_aranges
                0x00000000000008f8       0x20 NuttX/nuttx/sched/libsched.a(sem_reset.o)
 .debug_aranges
                0x0000000000000918       0x30 NuttX/nuttx/sched/libsched.a(task_create.o)
 .debug_aranges
                0x0000000000000948       0x28 NuttX/nuttx/sched/libsched.a(task_setup.o)
 .debug_aranges
                0x0000000000000970       0x20 NuttX/nuttx/sched/libsched.a(task_activate.o)
 .debug_aranges
                0x0000000000000990       0x20 NuttX/nuttx/sched/libsched.a(task_start.o)
 .debug_aranges
                0x00000000000009b0       0x20 NuttX/nuttx/sched/libsched.a(task_getpid.o)
 .debug_aranges
                0x00000000000009d0       0x20 NuttX/nuttx/sched/libsched.a(exit.o)
 .debug_aranges
                0x00000000000009f0       0x28 NuttX/nuttx/sched/libsched.a(group_create.o)
 .debug_aranges
                0x0000000000000a18       0x20 NuttX/nuttx/sched/libsched.a(group_setupidlefiles.o)
 .debug_aranges
                0x0000000000000a38       0x20 NuttX/nuttx/sched/libsched.a(group_setuptaskfiles.o)
 .debug_aranges
                0x0000000000000a58       0x20 NuttX/nuttx/sched/libsched.a(irq_initialize.o)
 .debug_aranges
                0x0000000000000a78       0x20 NuttX/nuttx/sched/libsched.a(sched_releasetcb.o)
 .debug_aranges
                0x0000000000000a98       0x20 NuttX/nuttx/sched/libsched.a(sched_lock.o)
 .debug_aranges
                0x0000000000000ab8       0x20 NuttX/nuttx/sched/libsched.a(sched_unlock.o)
 .debug_aranges
                0x0000000000000ad8       0x20 NuttX/nuttx/sched/libsched.a(task_exithook.o)
 .debug_aranges
                0x0000000000000af8       0x20 NuttX/nuttx/sched/libsched.a(task_recover.o)
 .debug_aranges
                0x0000000000000b18       0x20 NuttX/nuttx/sched/libsched.a(wd_recover.o)
 .debug_aranges
                0x0000000000000b38       0x20 NuttX/nuttx/sched/libsched.a(group_leave.o)
 .debug_aranges
                0x0000000000000b58       0x20 NuttX/nuttx/sched/libsched.a(sched_free.o)
 .debug_aranges
                0x0000000000000b78       0x20 NuttX/nuttx/sched/libsched.a(sem_recover.o)
 .debug_aranges
                0x0000000000000b98       0x20 NuttX/nuttx/sched/libsched.a(wd_cancel.o)
 .debug_aranges
                0x0000000000000bb8       0x20 NuttX/nuttx/sched/libsched.a(wd_delete.o)
 .debug_aranges
                0x0000000000000bd8       0x20 NuttX/nuttx/sched/libsched.a(wd_initialize.o)
 .debug_aranges
                0x0000000000000bf8       0x20 NuttX/nuttx/arch/arm/src/libarch.a(stm32_allocateheap.o)
 .debug_aranges
                0x0000000000000c18       0x20 NuttX/nuttx/arch/arm/src/libarch.a(stm32_idle.o)
 .debug_aranges
                0x0000000000000c38       0x20 NuttX/nuttx/arch/arm/src/libarch.a(up_blocktask.o)
 .debug_aranges
                0x0000000000000c58       0x20 NuttX/nuttx/arch/arm/src/libarch.a(up_copyfullstate.o)
 .debug_aranges
                0x0000000000000c78       0x28 NuttX/nuttx/arch/arm/src/libarch.a(up_createstack.o)
 .debug_aranges
                0x0000000000000ca0       0x20 NuttX/nuttx/arch/arm/src/libarch.a(up_mdelay.o)
 .debug_aranges
                0x0000000000000cc0       0x20 NuttX/nuttx/arch/arm/src/libarch.a(up_exit.o)
 .debug_aranges
                0x0000000000000ce0       0x20 NuttX/nuttx/arch/arm/src/libarch.a(up_initialize.o)
 .debug_aranges
                0x0000000000000d00       0x20 NuttX/nuttx/arch/arm/src/libarch.a(up_initialstate.o)
 .debug_aranges
                0x0000000000000d20       0x20 NuttX/nuttx/arch/arm/src/libarch.a(up_interruptcontext.o)
 .debug_aranges
                0x0000000000000d40       0x20 NuttX/nuttx/arch/arm/src/libarch.a(up_releasepending.o)
 .debug_aranges
                0x0000000000000d60       0x20 NuttX/nuttx/arch/arm/src/libarch.a(up_releasestack.o)
 .debug_aranges
                0x0000000000000d80       0x20 NuttX/nuttx/arch/arm/src/libarch.a(up_stackframe.o)
 .debug_aranges
                0x0000000000000da0       0x20 NuttX/nuttx/arch/arm/src/libarch.a(up_unblocktask.o)
 .debug_aranges
                0x0000000000000dc0       0x20 NuttX/nuttx/arch/arm/src/libarch.a(up_fullcontextrestore.o)
 .debug_aranges
                0x0000000000000de0       0x20 NuttX/nuttx/arch/arm/src/libarch.a(up_switchcontext.o)
 .debug_aranges
                0x0000000000000e00       0x28 NuttX/nuttx/arch/arm/src/libarch.a(stm32_timerisr.o)
 .debug_aranges
                0x0000000000000e28       0x20 NuttX/nuttx/libc/libc.a(sq_addlast.o)
 .debug_aranges
                0x0000000000000e48       0x20 NuttX/nuttx/libc/libc.a(sq_remfirst.o)
 .debug_aranges
                0x0000000000000e68       0x20 NuttX/nuttx/libc/libc.a(sq_remafter.o)
 .debug_aranges
                0x0000000000000e88       0x20 NuttX/nuttx/libc/libc.a(dq_addfirst.o)
 .debug_aranges
                0x0000000000000ea8       0x20 NuttX/nuttx/libc/libc.a(dq_rem.o)
 .debug_aranges
                0x0000000000000ec8       0x20 NuttX/nuttx/libc/libc.a(sem_setprotocol.o)
 .debug_aranges
                0x0000000000000ee8       0x50 NuttX/nuttx/libc/libc.a(lib_libvsprintf.o)
 .debug_aranges
                0x0000000000000f38       0x28 NuttX/nuttx/libc/libc.a(lib_nulloutstream.o)
 .debug_aranges
                0x0000000000000f60       0x20 NuttX/nuttx/libc/libc.a(lib_libnoflush.o)
 .debug_aranges
                0x0000000000000f80       0x20 NuttX/nuttx/libc/libc.a(lib_memset.o)
 .debug_aranges
                0x0000000000000fa0       0x20 NuttX/nuttx/libc/libc.a(lib_strchr.o)
 .debug_aranges
                0x0000000000000fc0       0x20 NuttX/nuttx/libc/libc.a(lib_strlen.o)
 .debug_aranges
                0x0000000000000fe0       0x20 NuttX/nuttx/libc/libc.a(lib_strnlen.o)
 .debug_aranges
                0x0000000000001000       0x20 NuttX/nuttx/libc/libc.a(lib_strncpy.o)
 .debug_aranges
                0x0000000000001020       0x20 NuttX/nuttx/drivers/libdrivers.a(syslog_initialize.o)
 .debug_aranges
                0x0000000000001040       0x20 NuttX/nuttx/drivers/libdrivers.a(syslog_consolechannel.o)
 .debug_aranges
                0x0000000000001060       0x48 NuttX/nuttx/drivers/libdrivers.a(syslog_device.o)
 .debug_aranges
                0x00000000000010a8       0x20 NuttX/nuttx/fs/libfs.a(fs_initialize.o)
 .debug_aranges
                0x00000000000010c8       0x60 NuttX/nuttx/fs/libfs.a(fs_files.o)
 .debug_aranges
                0x0000000000001128       0x20 NuttX/nuttx/fs/libfs.a(fs_inodeaddref.o)
 .debug_aranges
                0x0000000000001148       0x20 NuttX/nuttx/fs/libfs.a(fs_inoderelease.o)
 .debug_aranges
                0x0000000000001168       0x28 NuttX/nuttx/fs/libfs.a(fs_filedetach.o)
 .debug_aranges
                0x0000000000001190       0x20 NuttX/nuttx/fs/libfs.a(fs_close.o)
 .debug_aranges
                0x00000000000011b0       0x20 NuttX/nuttx/fs/libfs.a(fs_dupfd2.o)
 .debug_aranges
                0x00000000000011d0       0x20 NuttX/nuttx/fs/libfs.a(fs_getfilep.o)
 .debug_aranges
                0x00000000000011f0       0x28 NuttX/nuttx/fs/libfs.a(fs_open.o)
 .debug_aranges
                0x0000000000001218       0x28 NuttX/nuttx/fs/libfs.a(fs_write.o)
 .debug_aranges
                0x0000000000001240       0x20 NuttX/nuttx/fs/libfs.a(fs_inodefind.o)
 .debug_aranges
                0x0000000000001260       0x20 NuttX/nuttx/fs/libfs.a(fs_inodefree.o)
 .debug_aranges
                0x0000000000001280       0x20 NuttX/nuttx/mm/libmm.a(umm_initialize.o)
 .debug_aranges
                0x00000000000012a0       0x28 NuttX/nuttx/mm/libmm.a(umm_sem.o)
 .debug_aranges
                0x00000000000012c8       0x20 NuttX/nuttx/mm/libmm.a(umm_free.o)
 .debug_aranges
                0x00000000000012e8       0x20 NuttX/nuttx/mm/libmm.a(umm_malloc.o)
 .debug_aranges
                0x0000000000001308       0x28 NuttX/nuttx/mm/libmm.a(mm_initialize.o)
 .debug_aranges
                0x0000000000001330       0x20 NuttX/nuttx/mm/libmm.a(mm_free.o)
 .debug_aranges
                0x0000000000001350       0x20 NuttX/nuttx/sched/libsched.a(sched_getfiles.o)
 .debug_aranges
                0x0000000000001370       0x20 NuttX/nuttx/sched/libsched.a(sched_addreadytorun.o)
 .debug_aranges
                0x0000000000001390       0x20 NuttX/nuttx/sched/libsched.a(sched_removereadytorun.o)
 .debug_aranges
                0x00000000000013b0       0x20 NuttX/nuttx/sched/libsched.a(sched_addprioritized.o)
 .debug_aranges
                0x00000000000013d0       0x20 NuttX/nuttx/sched/libsched.a(sched_mergepending.o)
 .debug_aranges
                0x00000000000013f0       0x20 NuttX/nuttx/sched/libsched.a(sched_addblocked.o)
 .debug_aranges
                0x0000000000001410       0x20 NuttX/nuttx/sched/libsched.a(sched_removeblocked.o)
 .debug_aranges
                0x0000000000001430       0x20 NuttX/nuttx/sched/libsched.a(sched_processtimer.o)
 .debug_aranges
                0x0000000000001450       0x20 NuttX/nuttx/sched/libsched.a(sem_destroy.o)
 .debug_aranges
                0x0000000000001470       0x20 NuttX/nuttx/sched/libsched.a(task_exit.o)
 .debug_aranges
                0x0000000000001490       0x20 NuttX/nuttx/sched/libsched.a(task_terminate.o)
 .debug_aranges
                0x00000000000014b0       0x28 NuttX/nuttx/sched/libsched.a(wd_start.o)
 .debug_aranges
                0x00000000000014d8       0x20 NuttX/nuttx/sched/libsched.a(sched_gettcb.o)
 .debug_aranges
                0x00000000000014f8       0x20 NuttX/nuttx/libc/libc.a(sq_addfirst.o)
 .debug_aranges
                0x0000000000001518       0x20 NuttX/nuttx/libc/libc.a(sq_addafter.o)
 .debug_aranges
                0x0000000000001538       0x20 NuttX/nuttx/libc/libc.a(dq_addlast.o)
 .debug_aranges
                0x0000000000001558       0x20 NuttX/nuttx/libc/libc.a(lib_strdup.o)
 .debug_aranges
                0x0000000000001578       0x30 src/modules/px4iofirmware/libpx4iofirmware.a(px4io.c.obj)
 .debug_aranges
                0x00000000000015a8       0x30 src/modules/px4iofirmware/libpx4iofirmware.a(registers.c.obj)
 .debug_aranges
                0x00000000000015d8       0x38 src/modules/px4iofirmware/libpx4iofirmware.a(safety.c.obj)
 .debug_aranges
                0x0000000000001610       0x38 src/modules/px4iofirmware/libpx4iofirmware.a(serial.c.obj)
 .debug_aranges
                0x0000000000001648       0x28 src/modules/px4iofirmware/libpx4iofirmware.a(pwm_limit.c.obj)
 .debug_aranges
                0x0000000000001670       0x28 src/modules/px4iofirmware/libpx4iofirmware.a(adc.c.obj)
 .debug_aranges
                0x0000000000001698       0x28 src/modules/px4iofirmware/libpx4iofirmware.a(controls.c.obj)
 .debug_aranges
                0x00000000000016c0       0x50 src/modules/px4iofirmware/libpx4iofirmware.a(mixer.cpp.obj)
 .debug_aranges
                0x0000000000001710       0x20 NuttX/apps/libapps.a(gnu_cxxinitialize.o)
 .debug_aranges
                0x0000000000001730       0x20 NuttX/nuttx/arch/arm/src/libarch.a(up_udelay.o)
 .debug_aranges
                0x0000000000001750       0x20 NuttX/nuttx/arch/arm/src/libarch.a(up_systemreset.o)
 .debug_aranges
                0x0000000000001770       0x20 src/drivers/boards/px4io-v2/libdrivers_board.a(init.c.obj)
 .debug_aranges
                0x0000000000001790       0xa0 src/drivers/stm32/libdrivers_arch.a(drv_hrt.c.obj)
 .debug_aranges
                0x0000000000001830       0x60 src/drivers/stm32/libdrivers_arch.a(drv_pwm_servo.c.obj)
 .debug_aranges
                0x0000000000001890       0x90 src/drivers/stm32/libdrivers_arch.a(drv_io_timer.c.obj)
 .debug_aranges
                0x0000000000001920       0x18 src/drivers/boards/px4io-v2/libdrivers_board.a(timer_config.c.obj)
 .debug_aranges
                0x0000000000001938       0xa0 src/lib/mixer/libmixer.a(mixer_group.cpp.obj)
 .debug_aranges
                0x00000000000019d8       0x78 src/lib/mixer/libmixer.a(mixer_helicopter.cpp.obj)
 .debug_aranges
                0x0000000000001a50       0x80 src/lib/mixer/libmixer.a(mixer_multirotor.cpp.obj)
 .debug_aranges
                0x0000000000001ad0       0x98 src/lib/mixer/libmixer.a(mixer_simple.cpp.obj)
 .debug_aranges
                0x0000000000001b68       0xb8 src/lib/mixer/libmixer.a(mixer.cpp.obj)
 .debug_aranges
                0x0000000000001c20       0x28 src/lib/rc/librc.a(st24.cpp.obj)
 .debug_aranges
                0x0000000000001c48       0x30 src/lib/rc/librc.a(sumd.cpp.obj)
 .debug_aranges
                0x0000000000001c78       0x58 src/lib/rc/librc.a(sbus.cpp.obj)
 .debug_aranges
                0x0000000000001cd0       0x58 src/lib/rc/librc.a(dsm.cpp.obj)
 .debug_aranges
                0x0000000000001d28       0x18 src/lib/rc/librc.a(common_rc.cpp.obj)
 .debug_aranges
                0x0000000000001d40       0x20 NuttX/nuttx/libxx/libcxx.a(libxx_cxapurevirtual.o)
 .debug_aranges
                0x0000000000001d60       0x20 NuttX/nuttx/libxx/libcxx.a(libxx_eabi_atexit.o)
 .debug_aranges
                0x0000000000001d80       0x20 NuttX/nuttx/libxx/libcxx.a(libxx_cxa_atexit.o)
 .debug_aranges
                0x0000000000001da0       0x20 NuttX/nuttx/libxx/libcxx.a(libxx_delete.o)
 .debug_aranges
                0x0000000000001dc0       0x20 NuttX/nuttx/libxx/libcxx.a(libxx_deletea.o)
 .debug_aranges
                0x0000000000001de0       0x20 NuttX/nuttx/libxx/libcxx.a(libxx_new.o)
 .debug_aranges
                0x0000000000001e00       0x20 NuttX/nuttx/libxx/libcxx.a(libxx_newa.o)
 .debug_aranges
                0x0000000000001e20       0x28 NuttX/nuttx/libc/libc.a(lib_crc32.o)
 .debug_aranges
                0x0000000000001e48       0x20 NuttX/nuttx/libc/libc.a(sq_rem.o)
 .debug_aranges
                0x0000000000001e68       0x20 NuttX/nuttx/libc/libc.a(lib_printf.o)
 .debug_aranges
                0x0000000000001e88       0x20 NuttX/nuttx/libc/libc.a(lib_vsnprintf.o)
 .debug_aranges
                0x0000000000001ea8       0x28 NuttX/nuttx/libc/libc.a(lib_memoutstream.o)
 .debug_aranges
                0x0000000000001ed0       0x30 NuttX/nuttx/libc/libc.a(lib_sscanf.o)
 .debug_aranges
                0x0000000000001f00       0x20 NuttX/nuttx/libc/libc.a(lib_strtol.o)
 .debug_aranges
                0x0000000000001f20       0x20 NuttX/nuttx/libc/libc.a(lib_strtoul.o)
 .debug_aranges
                0x0000000000001f40       0x20 NuttX/nuttx/libc/libc.a(lib_checkbase.o)
 .debug_aranges
                0x0000000000001f60       0x20 NuttX/nuttx/libc/libc.a(lib_isbasedigit.o)
 .debug_aranges
                0x0000000000001f80       0x20 NuttX/nuttx/libc/libc.a(lib_memchr.o)
 .debug_aranges
                0x0000000000001fa0       0x20 NuttX/nuttx/libc/libc.a(lib_memmove.o)
 .debug_aranges
                0x0000000000001fc0       0x20 NuttX/nuttx/libc/libc.a(lib_skipspace.o)
 .debug_aranges
                0x0000000000001fe0       0x20 NuttX/nuttx/libc/libc.a(lib_strcmp.o)
 .debug_aranges
                0x0000000000002000       0x20 NuttX/nuttx/libc/libc.a(lib_strcspn.o)
 .debug_aranges
                0x0000000000002020       0x20 NuttX/nuttx/libc/libc.a(lib_tcgetattr.o)
 .debug_aranges
                0x0000000000002040       0x20 NuttX/nuttx/libc/libc.a(lib_tcsetattr.o)
 .debug_aranges
                0x0000000000002060       0x28 NuttX/nuttx/fs/libfs.a(fs_ioctl.o)
 .debug_aranges
                0x0000000000002088       0x28 NuttX/nuttx/fs/libfs.a(fs_read.o)
 .debug_aranges
                0x00000000000020b0       0x20 NuttX/nuttx/mm/libmm.a(umm_mallinfo.o)
 .debug_aranges
                0x00000000000020d0       0x20 NuttX/nuttx/mm/libmm.a(mm_mallinfo.o)
 .debug_aranges
                0x00000000000020f0       0xa8 src/lib/perf/libperf.a(perf_counter.c.obj)
START GROUP
LOAD NuttX/apps/libapps.a
LOAD NuttX/nuttx/arch/arm/src/libarch.a
LOAD NuttX/nuttx/binfmt/libbinfmt.a
LOAD NuttX/nuttx/binfmt/libbinfmt.a
LOAD NuttX/nuttx/libc/libc.a
LOAD NuttX/nuttx/configs/libconfigs.a
LOAD NuttX/nuttx/libxx/libcxx.a
LOAD NuttX/nuttx/drivers/libdrivers.a
LOAD NuttX/nuttx/fs/libfs.a
LOAD NuttX/nuttx/mm/libmm.a
LOAD NuttX/nuttx/sched/libsched.a
END GROUP
LOAD src/modules/uORB/libmodules__uORB.a
LOAD src/modules/px4iofirmware/libpx4iofirmware.a
LOAD src/modules/uORB/libmodules__uORB.a
LOAD src/platforms/common/libplatforms__common.a
LOAD platforms/nuttx/src/px4_layer/libpx4_layer.a
LOAD src/modules/systemlib/libsystemlib.a
LOAD NuttX/apps/libapps.a
LOAD NuttX/nuttx/arch/arm/src/libarch.a
LOAD src/drivers/boards/px4io-v2/libdrivers_board.a
LOAD src/drivers/stm32/libdrivers_arch.a
LOAD src/lib/parameters/libparameters.a
LOAD src/lib/parameters/flashparams/libflashparams.a
LOAD NuttX/nuttx/arch/arm/src/libarch.a
LOAD src/drivers/boards/px4io-v2/libdrivers_board.a
LOAD src/drivers/stm32/libdrivers_arch.a
LOAD src/lib/parameters/libparameters.a
LOAD src/lib/parameters/flashparams/libflashparams.a
LOAD msg/libuorb_msgs.a
LOAD src/lib/mixer/libmixer.a
LOAD src/lib/rc/librc.a
LOAD NuttX/nuttx/libxx/libcxx.a
LOAD NuttX/nuttx/libc/libc.a
LOAD NuttX/nuttx/drivers/libdrivers.a
LOAD NuttX/nuttx/fs/libfs.a
LOAD NuttX/nuttx/mm/libmm.a
LOAD NuttX/nuttx/sched/libsched.a
LOAD /home/zhouhua/gcc-arm-none-eabi-7-2017-q4-major/bin/../lib/gcc/arm-none-eabi/7.2.1/../../../../arm-none-eabi/lib/thumb/v7-m/libm.a
LOAD /home/zhouhua/gcc-arm-none-eabi-7-2017-q4-major/bin/../lib/gcc/arm-none-eabi/7.2.1/thumb/v7-m/libgcc.a
LOAD src/lib/perf/libperf.a
OUTPUT(nuttx_px4io-v2_default.elf elf32-littlearm)

.debug_loc      0x0000000000000000    0x12378
 .debug_loc     0x0000000000000000       0x4e NuttX/nuttx/arch/arm/src/libarch.a(stm32_start.o)
 .debug_loc     0x000000000000004e       0xde NuttX/nuttx/arch/arm/src/libarch.a(stm32_rcc.o)
 .debug_loc     0x000000000000012c      0x50c NuttX/nuttx/arch/arm/src/libarch.a(stm32_gpio.o)
 .debug_loc     0x0000000000000638       0x7d NuttX/nuttx/arch/arm/src/libarch.a(stm32_lowputc.o)
 .debug_loc     0x00000000000006b5     0x1551 NuttX/nuttx/arch/arm/src/libarch.a(stm32_serial.o)
 .debug_loc     0x0000000000001c06       0x97 NuttX/nuttx/arch/arm/src/libarch.a(up_modifyreg32.o)
 .debug_loc     0x0000000000001c9d      0x21e NuttX/nuttx/arch/arm/src/libarch.a(stm32_irq.o)
 .debug_loc     0x0000000000001ebb      0x822 NuttX/nuttx/arch/arm/src/libarch.a(stm32_dma.o)
 .debug_loc     0x00000000000026dd      0x1bf NuttX/nuttx/arch/arm/src/libarch.a(up_assert.o)
 .debug_loc     0x000000000000289c       0x68 NuttX/nuttx/arch/arm/src/libarch.a(up_doirq.o)
 .debug_loc     0x0000000000002904       0x77 NuttX/nuttx/arch/arm/src/libarch.a(up_hardfault.o)
 .debug_loc     0x000000000000297b      0x16d NuttX/nuttx/arch/arm/src/libarch.a(up_svcall.o)
 .debug_loc     0x0000000000002ae8       0xe7 NuttX/nuttx/arch/arm/src/libarch.a(up_checkstack.o)
 .debug_loc     0x0000000000002bcf       0xae NuttX/nuttx/libc/libc.a(sem_init.o)
 .debug_loc     0x0000000000002c7d       0x3e NuttX/nuttx/libc/libc.a(lib_strcpy.o)
 .debug_loc     0x0000000000002cbb       0x77 NuttX/nuttx/libc/libc.a(lib_syslog.o)
 .debug_loc     0x0000000000002d32       0x35 NuttX/nuttx/libc/libc.a(lib_setlogmask.o)
 .debug_loc     0x0000000000002d67       0x21 NuttX/nuttx/libc/libc.a(lib_cfgetspeed.o)
 .debug_loc     0x0000000000002d88       0x21 NuttX/nuttx/libc/libc.a(lib_cfsetspeed.o)
 .debug_loc     0x0000000000002da9      0xb01 NuttX/nuttx/drivers/libdrivers.a(serial.o)
 .debug_loc     0x00000000000038aa      0x14d NuttX/nuttx/drivers/libdrivers.a(serial_io.o)
 .debug_loc     0x00000000000039f7       0xb5 NuttX/nuttx/drivers/libdrivers.a(vsyslog.o)
 .debug_loc     0x0000000000003aac       0x69 NuttX/nuttx/drivers/libdrivers.a(syslog_stream.o)
 .debug_loc     0x0000000000003b15       0x69 NuttX/nuttx/drivers/libdrivers.a(syslog_emergstream.o)
 .debug_loc     0x0000000000003b7e       0x42 NuttX/nuttx/drivers/libdrivers.a(syslog_putc.o)
 .debug_loc     0x0000000000003bc0       0x21 NuttX/nuttx/drivers/libdrivers.a(syslog_force.o)
 .debug_loc     0x0000000000003be1       0x3b NuttX/nuttx/drivers/libdrivers.a(syslog_channel.o)
 .debug_loc     0x0000000000003c1c       0xb3 NuttX/nuttx/fs/libfs.a(fs_registerdriver.o)
 .debug_loc     0x0000000000003ccf       0x1e NuttX/nuttx/fs/libfs.a(fs_inode.o)
 .debug_loc     0x0000000000003ced      0x3b8 NuttX/nuttx/fs/libfs.a(fs_inodereserve.o)
 .debug_loc     0x00000000000040a5      0x296 NuttX/nuttx/fs/libfs.a(fs_inodesearch.o)
 .debug_loc     0x000000000000433b       0x2c NuttX/nuttx/mm/libmm.a(umm_zalloc.o)
 .debug_loc     0x0000000000004367       0x5d NuttX/nuttx/mm/libmm.a(mm_zalloc.o)
 .debug_loc     0x00000000000043c4      0x14e NuttX/nuttx/mm/libmm.a(mm_malloc.o)
 .debug_loc     0x0000000000004512       0xc5 NuttX/nuttx/mm/libmm.a(mm_sem.o)
 .debug_loc     0x00000000000045d7       0xb0 NuttX/nuttx/mm/libmm.a(mm_addfreechunk.o)
 .debug_loc     0x0000000000004687       0x62 NuttX/nuttx/mm/libmm.a(mm_size2ndx.o)
 .debug_loc     0x00000000000046e9       0x13 NuttX/nuttx/sched/libsched.a(errno_getptr.o)
 .debug_loc     0x00000000000046fc       0x3f NuttX/nuttx/sched/libsched.a(os_start.o)
 .debug_loc     0x000000000000473b       0x13 NuttX/nuttx/sched/libsched.a(os_bringup.o)
 .debug_loc     0x000000000000474e      0x137 NuttX/nuttx/sched/libsched.a(irq_attach.o)
 .debug_loc     0x0000000000004885       0x55 NuttX/nuttx/sched/libsched.a(irq_dispatch.o)
 .debug_loc     0x00000000000048da       0x77 NuttX/nuttx/sched/libsched.a(irq_unexpectedisr.o)
 .debug_loc     0x0000000000004951       0x3f NuttX/nuttx/sched/libsched.a(sched_garbage.o)
 .debug_loc     0x0000000000004990       0xc3 NuttX/nuttx/sched/libsched.a(sched_foreach.o)
 .debug_loc     0x0000000000004a53       0xd8 NuttX/nuttx/sched/libsched.a(sem_wait.o)
 .debug_loc     0x0000000000004b2b       0xe8 NuttX/nuttx/sched/libsched.a(sem_trywait.o)
 .debug_loc     0x0000000000004c13       0xeb NuttX/nuttx/sched/libsched.a(sem_post.o)
 .debug_loc     0x0000000000004cfe       0x94 NuttX/nuttx/sched/libsched.a(sem_reset.o)
 .debug_loc     0x0000000000004d92      0x30c NuttX/nuttx/sched/libsched.a(task_create.o)
 .debug_loc     0x000000000000509e      0x596 NuttX/nuttx/sched/libsched.a(task_setup.o)
 .debug_loc     0x0000000000005634       0x4d NuttX/nuttx/sched/libsched.a(task_activate.o)
 .debug_loc     0x0000000000005681       0x5b NuttX/nuttx/sched/libsched.a(task_start.o)
 .debug_loc     0x00000000000056dc       0x13 NuttX/nuttx/sched/libsched.a(task_getpid.o)
 .debug_loc     0x00000000000056ef       0x31 NuttX/nuttx/sched/libsched.a(exit.o)
 .debug_loc     0x0000000000005720       0x92 NuttX/nuttx/sched/libsched.a(group_create.o)
 .debug_loc     0x00000000000057b2       0x78 NuttX/nuttx/sched/libsched.a(group_setupidlefiles.o)
 .debug_loc     0x000000000000582a       0x44 NuttX/nuttx/sched/libsched.a(group_setuptaskfiles.o)
 .debug_loc     0x000000000000586e       0x1f NuttX/nuttx/sched/libsched.a(irq_initialize.o)
 .debug_loc     0x000000000000588d       0x7f NuttX/nuttx/sched/libsched.a(sched_releasetcb.o)
 .debug_loc     0x000000000000590c       0x13 NuttX/nuttx/sched/libsched.a(sched_lock.o)
 .debug_loc     0x000000000000591f       0x52 NuttX/nuttx/sched/libsched.a(sched_unlock.o)
 .debug_loc     0x0000000000005971       0x60 NuttX/nuttx/sched/libsched.a(task_exithook.o)
 .debug_loc     0x00000000000059d1       0x37 NuttX/nuttx/sched/libsched.a(task_recover.o)
 .debug_loc     0x0000000000005a08       0x5d NuttX/nuttx/sched/libsched.a(wd_recover.o)
 .debug_loc     0x0000000000005a65       0x34 NuttX/nuttx/sched/libsched.a(group_leave.o)
 .debug_loc     0x0000000000005a99       0x58 NuttX/nuttx/sched/libsched.a(sched_free.o)
 .debug_loc     0x0000000000005af1       0x52 NuttX/nuttx/sched/libsched.a(sem_recover.o)
 .debug_loc     0x0000000000005b43      0x12b NuttX/nuttx/sched/libsched.a(wd_cancel.o)
 .debug_loc     0x0000000000005c6e       0x5d NuttX/nuttx/sched/libsched.a(wd_delete.o)
 .debug_loc     0x0000000000005ccb       0x52 NuttX/nuttx/sched/libsched.a(wd_initialize.o)
 .debug_loc     0x0000000000005d1d       0xfd NuttX/nuttx/arch/arm/src/libarch.a(up_blocktask.o)
 .debug_loc     0x0000000000005e1a       0x59 NuttX/nuttx/arch/arm/src/libarch.a(up_copyfullstate.o)
 .debug_loc     0x0000000000005e73      0x123 NuttX/nuttx/arch/arm/src/libarch.a(up_createstack.o)
 .debug_loc     0x0000000000005f96       0x55 NuttX/nuttx/arch/arm/src/libarch.a(up_exit.o)
 .debug_loc     0x0000000000005feb       0x4b NuttX/nuttx/arch/arm/src/libarch.a(up_initialstate.o)
 .debug_loc     0x0000000000006036       0x63 NuttX/nuttx/arch/arm/src/libarch.a(up_releasepending.o)
 .debug_loc     0x0000000000006099       0x3f NuttX/nuttx/arch/arm/src/libarch.a(up_releasestack.o)
 .debug_loc     0x00000000000060d8       0x5f NuttX/nuttx/arch/arm/src/libarch.a(up_stackframe.o)
 .debug_loc     0x0000000000006137       0xa5 NuttX/nuttx/arch/arm/src/libarch.a(up_unblocktask.o)
 .debug_loc     0x00000000000061dc       0x86 NuttX/nuttx/arch/arm/src/libarch.a(stm32_timerisr.o)
 .debug_loc     0x0000000000006262       0x21 NuttX/nuttx/libc/libc.a(sq_remfirst.o)
 .debug_loc     0x0000000000006283       0x42 NuttX/nuttx/libc/libc.a(sq_remafter.o)
 .debug_loc     0x00000000000062c5       0x1e NuttX/nuttx/libc/libc.a(dq_rem.o)
 .debug_loc     0x00000000000062e3       0x60 NuttX/nuttx/libc/libc.a(sem_setprotocol.o)
 .debug_loc     0x0000000000006343      0xe11 NuttX/nuttx/libc/libc.a(lib_libvsprintf.o)
 .debug_loc     0x0000000000007154       0x21 NuttX/nuttx/libc/libc.a(lib_libnoflush.o)
 .debug_loc     0x0000000000007175       0x3e NuttX/nuttx/libc/libc.a(lib_memset.o)
 .debug_loc     0x00000000000071b3       0x3c NuttX/nuttx/libc/libc.a(lib_strchr.o)
 .debug_loc     0x00000000000071ef       0x57 NuttX/nuttx/libc/libc.a(lib_strlen.o)
 .debug_loc     0x0000000000007246       0x6a NuttX/nuttx/libc/libc.a(lib_strnlen.o)
 .debug_loc     0x00000000000072b0       0x77 NuttX/nuttx/libc/libc.a(lib_strncpy.o)
 .debug_loc     0x0000000000007327       0x3a NuttX/nuttx/drivers/libdrivers.a(syslog_initialize.o)
 .debug_loc     0x0000000000007361       0x1e NuttX/nuttx/drivers/libdrivers.a(syslog_consolechannel.o)
 .debug_loc     0x000000000000737f      0x3f1 NuttX/nuttx/drivers/libdrivers.a(syslog_device.o)
 .debug_loc     0x0000000000007770      0x3ae NuttX/nuttx/fs/libfs.a(fs_files.o)
 .debug_loc     0x0000000000007b1e       0x37 NuttX/nuttx/fs/libfs.a(fs_inodeaddref.o)
 .debug_loc     0x0000000000007b55       0x5b NuttX/nuttx/fs/libfs.a(fs_inoderelease.o)
 .debug_loc     0x0000000000007bb0      0x11d NuttX/nuttx/fs/libfs.a(fs_filedetach.o)
 .debug_loc     0x0000000000007ccd       0x6b NuttX/nuttx/fs/libfs.a(fs_close.o)
 .debug_loc     0x0000000000007d38       0xc3 NuttX/nuttx/fs/libfs.a(fs_dupfd2.o)
 .debug_loc     0x0000000000007dfb       0x8f NuttX/nuttx/fs/libfs.a(fs_getfilep.o)
 .debug_loc     0x0000000000007e8a      0x146 NuttX/nuttx/fs/libfs.a(fs_open.o)
 .debug_loc     0x0000000000007fd0      0x1f3 NuttX/nuttx/fs/libfs.a(fs_write.o)
 .debug_loc     0x00000000000081c3       0x4f NuttX/nuttx/fs/libfs.a(fs_inodefind.o)
 .debug_loc     0x0000000000008212       0x42 NuttX/nuttx/fs/libfs.a(fs_inodefree.o)
 .debug_loc     0x0000000000008254       0x58 NuttX/nuttx/mm/libmm.a(umm_initialize.o)
 .debug_loc     0x00000000000082ac       0x2c NuttX/nuttx/mm/libmm.a(umm_free.o)
 .debug_loc     0x00000000000082d8       0x2c NuttX/nuttx/mm/libmm.a(umm_malloc.o)
 .debug_loc     0x0000000000008304      0x230 NuttX/nuttx/mm/libmm.a(mm_initialize.o)
 .debug_loc     0x0000000000008534       0xf3 NuttX/nuttx/mm/libmm.a(mm_free.o)
 .debug_loc     0x0000000000008627       0x1f NuttX/nuttx/sched/libsched.a(sched_getfiles.o)
 .debug_loc     0x0000000000008646       0x72 NuttX/nuttx/sched/libsched.a(sched_addreadytorun.o)
 .debug_loc     0x00000000000086b8       0x67 NuttX/nuttx/sched/libsched.a(sched_removereadytorun.o)
 .debug_loc     0x000000000000871f      0x12c NuttX/nuttx/sched/libsched.a(sched_addprioritized.o)
 .debug_loc     0x000000000000884b       0x79 NuttX/nuttx/sched/libsched.a(sched_mergepending.o)
 .debug_loc     0x00000000000088c4       0x73 NuttX/nuttx/sched/libsched.a(sched_addblocked.o)
 .debug_loc     0x0000000000008937       0x40 NuttX/nuttx/sched/libsched.a(sched_removeblocked.o)
 .debug_loc     0x0000000000008977       0x3a NuttX/nuttx/sched/libsched.a(sem_destroy.o)
 .debug_loc     0x00000000000089b1       0x4f NuttX/nuttx/sched/libsched.a(task_exit.o)
 .debug_loc     0x0000000000008a00       0x95 NuttX/nuttx/sched/libsched.a(task_terminate.o)
 .debug_loc     0x0000000000008a95      0x230 NuttX/nuttx/sched/libsched.a(wd_start.o)
 .debug_loc     0x0000000000008cc5       0x5f NuttX/nuttx/sched/libsched.a(sched_gettcb.o)
 .debug_loc     0x0000000000008d24       0xa8 NuttX/nuttx/libc/libc.a(sq_addafter.o)
 .debug_loc     0x0000000000008dcc       0x48 NuttX/nuttx/libc/libc.a(lib_strdup.o)
 .debug_loc     0x0000000000008e14      0x303 src/modules/px4iofirmware/libpx4iofirmware.a(px4io.c.obj)
 .debug_loc     0x0000000000009117     0x11cd src/modules/px4iofirmware/libpx4iofirmware.a(registers.c.obj)
 .debug_loc     0x000000000000a2e4       0xbc src/modules/px4iofirmware/libpx4iofirmware.a(safety.c.obj)
 .debug_loc     0x000000000000a3a0      0x2e6 src/modules/px4iofirmware/libpx4iofirmware.a(serial.c.obj)
 .debug_loc     0x000000000000a686      0x317 src/modules/px4iofirmware/libpx4iofirmware.a(pwm_limit.c.obj)
 .debug_loc     0x000000000000a99d       0x4e src/modules/px4iofirmware/libpx4iofirmware.a(adc.c.obj)
 .debug_loc     0x000000000000a9eb      0x724 src/modules/px4iofirmware/libpx4iofirmware.a(controls.c.obj)
 .debug_loc     0x000000000000b10f      0x4c7 src/modules/px4iofirmware/libpx4iofirmware.a(mixer.cpp.obj)
 .debug_loc     0x000000000000b5d6       0x3e NuttX/apps/libapps.a(gnu_cxxinitialize.o)
 .debug_loc     0x000000000000b614       0x1e NuttX/nuttx/arch/arm/src/libarch.a(up_udelay.o)
 .debug_loc     0x000000000000b632       0x1e NuttX/nuttx/arch/arm/src/libarch.a(up_systemreset.o)
 .debug_loc     0x000000000000b650      0x917 src/drivers/stm32/libdrivers_arch.a(drv_hrt.c.obj)
 .debug_loc     0x000000000000bf67      0x1d0 src/drivers/stm32/libdrivers_arch.a(drv_pwm_servo.c.obj)
 .debug_loc     0x000000000000c137      0xcf1 src/drivers/stm32/libdrivers_arch.a(drv_io_timer.c.obj)
 .debug_loc     0x000000000000ce28      0x646 src/lib/mixer/libmixer.a(mixer_group.cpp.obj)
 .debug_loc     0x000000000000d46e      0x4e7 src/lib/mixer/libmixer.a(mixer_helicopter.cpp.obj)
 .debug_loc     0x000000000000d955      0x828 src/lib/mixer/libmixer.a(mixer_multirotor.cpp.obj)
 .debug_loc     0x000000000000e17d      0x783 src/lib/mixer/libmixer.a(mixer_simple.cpp.obj)
 .debug_loc     0x000000000000e900      0x39f src/lib/mixer/libmixer.a(mixer.cpp.obj)
 .debug_loc     0x000000000000ec9f      0x3bc src/lib/rc/librc.a(st24.cpp.obj)
 .debug_loc     0x000000000000f05b      0x42e src/lib/rc/librc.a(sumd.cpp.obj)
 .debug_loc     0x000000000000f489      0x6f6 src/lib/rc/librc.a(sbus.cpp.obj)
 .debug_loc     0x000000000000fb7f      0x84b src/lib/rc/librc.a(dsm.cpp.obj)
 .debug_loc     0x00000000000103ca       0x79 NuttX/nuttx/libxx/libcxx.a(libxx_eabi_atexit.o)
 .debug_loc     0x0000000000010443       0x21 NuttX/nuttx/libxx/libcxx.a(libxx_cxa_atexit.o)
 .debug_loc     0x0000000000010464       0x21 NuttX/nuttx/libxx/libcxx.a(libxx_delete.o)
 .debug_loc     0x0000000000010485       0x21 NuttX/nuttx/libxx/libcxx.a(libxx_deletea.o)
 .debug_loc     0x00000000000104a6       0x4e NuttX/nuttx/libxx/libcxx.a(libxx_new.o)
 .debug_loc     0x00000000000104f4       0x4e NuttX/nuttx/libxx/libcxx.a(libxx_newa.o)
 .debug_loc     0x0000000000010542       0xfb NuttX/nuttx/libc/libc.a(lib_crc32.o)
 .debug_loc     0x000000000001063d       0x76 NuttX/nuttx/libc/libc.a(sq_rem.o)
 .debug_loc     0x00000000000106b3      0x11e NuttX/nuttx/libc/libc.a(lib_vsnprintf.o)
 .debug_loc     0x00000000000107d1       0x41 NuttX/nuttx/libc/libc.a(lib_memoutstream.o)
 .debug_loc     0x0000000000010812      0x5a1 NuttX/nuttx/libc/libc.a(lib_sscanf.o)
 .debug_loc     0x0000000000010db3      0x12b NuttX/nuttx/libc/libc.a(lib_strtol.o)
 .debug_loc     0x0000000000010ede      0x11e NuttX/nuttx/libc/libc.a(lib_strtoul.o)
 .debug_loc     0x0000000000010ffc       0xda NuttX/nuttx/libc/libc.a(lib_checkbase.o)
 .debug_loc     0x00000000000110d6      0x11f NuttX/nuttx/libc/libc.a(lib_isbasedigit.o)
 .debug_loc     0x00000000000111f5       0xb8 NuttX/nuttx/libc/libc.a(lib_memchr.o)
 .debug_loc     0x00000000000112ad       0xd3 NuttX/nuttx/libc/libc.a(lib_memmove.o)
 .debug_loc     0x0000000000011380       0x47 NuttX/nuttx/libc/libc.a(lib_skipspace.o)
 .debug_loc     0x00000000000113c7       0x63 NuttX/nuttx/libc/libc.a(lib_strcmp.o)
 .debug_loc     0x000000000001142a       0x5b NuttX/nuttx/libc/libc.a(lib_strcspn.o)
 .debug_loc     0x0000000000011485       0x4d NuttX/nuttx/libc/libc.a(lib_tcgetattr.o)
 .debug_loc     0x00000000000114d2       0x92 NuttX/nuttx/libc/libc.a(lib_tcsetattr.o)
 .debug_loc     0x0000000000011564      0x1db NuttX/nuttx/fs/libfs.a(fs_ioctl.o)
 .debug_loc     0x000000000001173f      0x1ce NuttX/nuttx/fs/libfs.a(fs_read.o)
 .debug_loc     0x000000000001190d       0xee NuttX/nuttx/mm/libmm.a(mm_mallinfo.o)
 .debug_loc     0x00000000000119fb      0x97d src/lib/perf/libperf.a(perf_counter.c.obj)

.debug_ranges   0x0000000000000000     0x2948
 .debug_ranges  0x0000000000000000       0x18 NuttX/nuttx/arch/arm/src/libarch.a(stm32_start.o)
 .debug_ranges  0x0000000000000018       0x40 NuttX/nuttx/arch/arm/src/libarch.a(stm32_rcc.o)
 .debug_ranges  0x0000000000000058       0x30 NuttX/nuttx/arch/arm/src/libarch.a(stm32_gpio.o)
 .debug_ranges  0x0000000000000088       0x18 NuttX/nuttx/arch/arm/src/libarch.a(stm32_lowputc.o)
 .debug_ranges  0x00000000000000a0      0x268 NuttX/nuttx/arch/arm/src/libarch.a(stm32_serial.o)
 .debug_ranges  0x0000000000000308       0x10 NuttX/nuttx/arch/arm/src/libarch.a(up_modifyreg32.o)
 .debug_ranges  0x0000000000000318       0x50 NuttX/nuttx/arch/arm/src/libarch.a(stm32_irq.o)
 .debug_ranges  0x0000000000000368       0x98 NuttX/nuttx/arch/arm/src/libarch.a(stm32_dma.o)
 .debug_ranges  0x0000000000000400       0x68 NuttX/nuttx/arch/arm/src/libarch.a(up_assert.o)
 .debug_ranges  0x0000000000000468       0x10 NuttX/nuttx/arch/arm/src/libarch.a(up_doirq.o)
 .debug_ranges  0x0000000000000478       0x10 NuttX/nuttx/arch/arm/src/libarch.a(up_hardfault.o)
 .debug_ranges  0x0000000000000488       0x10 NuttX/nuttx/arch/arm/src/libarch.a(up_svcall.o)
 .debug_ranges  0x0000000000000498       0x48 NuttX/nuttx/arch/arm/src/libarch.a(up_checkstack.o)
 .debug_ranges  0x00000000000004e0       0x10 NuttX/nuttx/libc/libc.a(sem_init.o)
 .debug_ranges  0x00000000000004f0       0x10 NuttX/nuttx/libc/libc.a(lib_abort.o)
 .debug_ranges  0x0000000000000500       0x10 NuttX/nuttx/libc/libc.a(lib_strcpy.o)
 .debug_ranges  0x0000000000000510       0x18 NuttX/nuttx/libc/libc.a(lib_syslog.o)
 .debug_ranges  0x0000000000000528       0x28 NuttX/nuttx/libc/libc.a(lib_setlogmask.o)
 .debug_ranges  0x0000000000000550       0x10 NuttX/nuttx/libc/libc.a(lib_cfgetspeed.o)
 .debug_ranges  0x0000000000000560       0x10 NuttX/nuttx/libc/libc.a(lib_cfsetspeed.o)
 .debug_ranges  0x0000000000000570      0x188 NuttX/nuttx/drivers/libdrivers.a(serial.o)
 .debug_ranges  0x00000000000006f8       0x30 NuttX/nuttx/drivers/libdrivers.a(serial_io.o)
 .debug_ranges  0x0000000000000728       0x10 NuttX/nuttx/drivers/libdrivers.a(vsyslog.o)
 .debug_ranges  0x0000000000000738       0x30 NuttX/nuttx/drivers/libdrivers.a(syslog_stream.o)
 .debug_ranges  0x0000000000000768       0x18 NuttX/nuttx/drivers/libdrivers.a(syslog_emergstream.o)
 .debug_ranges  0x0000000000000780       0x10 NuttX/nuttx/drivers/libdrivers.a(syslog_putc.o)
 .debug_ranges  0x0000000000000790       0x10 NuttX/nuttx/drivers/libdrivers.a(syslog_force.o)
 .debug_ranges  0x00000000000007a0       0x18 NuttX/nuttx/drivers/libdrivers.a(syslog_channel.o)
 .debug_ranges  0x00000000000007b8       0x10 NuttX/nuttx/fs/libfs.a(fs_registerdriver.o)
 .debug_ranges  0x00000000000007c8       0x20 NuttX/nuttx/fs/libfs.a(fs_inode.o)
 .debug_ranges  0x00000000000007e8       0xa0 NuttX/nuttx/fs/libfs.a(fs_inodereserve.o)
 .debug_ranges  0x0000000000000888       0x70 NuttX/nuttx/fs/libfs.a(fs_inodesearch.o)
 .debug_ranges  0x00000000000008f8       0x10 NuttX/nuttx/mm/libmm.a(umm_zalloc.o)
 .debug_ranges  0x0000000000000908       0x10 NuttX/nuttx/mm/libmm.a(mm_zalloc.o)
 .debug_ranges  0x0000000000000918       0x10 NuttX/nuttx/mm/libmm.a(mm_malloc.o)
 .debug_ranges  0x0000000000000928       0x28 NuttX/nuttx/mm/libmm.a(mm_sem.o)
 .debug_ranges  0x0000000000000950       0x10 NuttX/nuttx/mm/libmm.a(mm_addfreechunk.o)
 .debug_ranges  0x0000000000000960       0x10 NuttX/nuttx/mm/libmm.a(mm_size2ndx.o)
 .debug_ranges  0x0000000000000970       0x10 NuttX/nuttx/sched/libsched.a(errno_getptr.o)
 .debug_ranges  0x0000000000000980       0x50 NuttX/nuttx/sched/libsched.a(os_start.o)
 .debug_ranges  0x00000000000009d0       0x10 NuttX/nuttx/sched/libsched.a(os_bringup.o)
 .debug_ranges  0x00000000000009e0       0x10 NuttX/nuttx/sched/libsched.a(irq_attach.o)
 .debug_ranges  0x00000000000009f0       0x10 NuttX/nuttx/sched/libsched.a(irq_dispatch.o)
 .debug_ranges  0x0000000000000a00       0x10 NuttX/nuttx/sched/libsched.a(irq_unexpectedisr.o)
 .debug_ranges  0x0000000000000a10       0x60 NuttX/nuttx/sched/libsched.a(sched_garbage.o)
 .debug_ranges  0x0000000000000a70       0x10 NuttX/nuttx/sched/libsched.a(sched_foreach.o)
 .debug_ranges  0x0000000000000a80       0x10 NuttX/nuttx/sched/libsched.a(sched_idletask.o)
 .debug_ranges  0x0000000000000a90       0x10 NuttX/nuttx/sched/libsched.a(sem_wait.o)
 .debug_ranges  0x0000000000000aa0       0x10 NuttX/nuttx/sched/libsched.a(sem_trywait.o)
 .debug_ranges  0x0000000000000ab0       0x10 NuttX/nuttx/sched/libsched.a(sem_post.o)
 .debug_ranges  0x0000000000000ac0       0x10 NuttX/nuttx/sched/libsched.a(sem_reset.o)
 .debug_ranges  0x0000000000000ad0       0x20 NuttX/nuttx/sched/libsched.a(task_create.o)
 .debug_ranges  0x0000000000000af0       0x88 NuttX/nuttx/sched/libsched.a(task_setup.o)
 .debug_ranges  0x0000000000000b78       0x10 NuttX/nuttx/sched/libsched.a(task_activate.o)
 .debug_ranges  0x0000000000000b88       0x10 NuttX/nuttx/sched/libsched.a(task_start.o)
 .debug_ranges  0x0000000000000b98       0x10 NuttX/nuttx/sched/libsched.a(task_getpid.o)
 .debug_ranges  0x0000000000000ba8       0x10 NuttX/nuttx/sched/libsched.a(exit.o)
 .debug_ranges  0x0000000000000bb8       0x18 NuttX/nuttx/sched/libsched.a(group_create.o)
 .debug_ranges  0x0000000000000bd0       0x10 NuttX/nuttx/sched/libsched.a(group_setupidlefiles.o)
 .debug_ranges  0x0000000000000be0       0x10 NuttX/nuttx/sched/libsched.a(group_setuptaskfiles.o)
 .debug_ranges  0x0000000000000bf0       0x10 NuttX/nuttx/sched/libsched.a(irq_initialize.o)
 .debug_ranges  0x0000000000000c00       0x10 NuttX/nuttx/sched/libsched.a(sched_releasetcb.o)
 .debug_ranges  0x0000000000000c10       0x10 NuttX/nuttx/sched/libsched.a(sched_lock.o)
 .debug_ranges  0x0000000000000c20       0x10 NuttX/nuttx/sched/libsched.a(sched_unlock.o)
 .debug_ranges  0x0000000000000c30       0x10 NuttX/nuttx/sched/libsched.a(task_exithook.o)
 .debug_ranges  0x0000000000000c40       0x10 NuttX/nuttx/sched/libsched.a(task_recover.o)
 .debug_ranges  0x0000000000000c50       0x10 NuttX/nuttx/sched/libsched.a(wd_recover.o)
 .debug_ranges  0x0000000000000c60       0x10 NuttX/nuttx/sched/libsched.a(group_leave.o)
 .debug_ranges  0x0000000000000c70       0x10 NuttX/nuttx/sched/libsched.a(sched_free.o)
 .debug_ranges  0x0000000000000c80       0x10 NuttX/nuttx/sched/libsched.a(sem_recover.o)
 .debug_ranges  0x0000000000000c90       0x10 NuttX/nuttx/sched/libsched.a(wd_cancel.o)
 .debug_ranges  0x0000000000000ca0       0x28 NuttX/nuttx/sched/libsched.a(wd_delete.o)
 .debug_ranges  0x0000000000000cc8       0x10 NuttX/nuttx/sched/libsched.a(wd_initialize.o)
 .debug_ranges  0x0000000000000cd8       0x10 NuttX/nuttx/arch/arm/src/libarch.a(stm32_allocateheap.o)
 .debug_ranges  0x0000000000000ce8       0x10 NuttX/nuttx/arch/arm/src/libarch.a(stm32_idle.o)
 .debug_ranges  0x0000000000000cf8       0x28 NuttX/nuttx/arch/arm/src/libarch.a(up_blocktask.o)
 .debug_ranges  0x0000000000000d20       0x10 NuttX/nuttx/arch/arm/src/libarch.a(up_copyfullstate.o)
 .debug_ranges  0x0000000000000d30       0x18 NuttX/nuttx/arch/arm/src/libarch.a(up_createstack.o)
 .debug_ranges  0x0000000000000d48       0x10 NuttX/nuttx/arch/arm/src/libarch.a(up_mdelay.o)
 .debug_ranges  0x0000000000000d58       0x10 NuttX/nuttx/arch/arm/src/libarch.a(up_exit.o)
 .debug_ranges  0x0000000000000d68       0x10 NuttX/nuttx/arch/arm/src/libarch.a(up_initialize.o)
 .debug_ranges  0x0000000000000d78       0x10 NuttX/nuttx/arch/arm/src/libarch.a(up_initialstate.o)
 .debug_ranges  0x0000000000000d88       0x10 NuttX/nuttx/arch/arm/src/libarch.a(up_interruptcontext.o)
 .debug_ranges  0x0000000000000d98       0x28 NuttX/nuttx/arch/arm/src/libarch.a(up_releasepending.o)
 .debug_ranges  0x0000000000000dc0       0x10 NuttX/nuttx/arch/arm/src/libarch.a(up_releasestack.o)
 .debug_ranges  0x0000000000000dd0       0x10 NuttX/nuttx/arch/arm/src/libarch.a(up_stackframe.o)
 .debug_ranges  0x0000000000000de0       0x28 NuttX/nuttx/arch/arm/src/libarch.a(up_unblocktask.o)
 .debug_ranges  0x0000000000000e08       0x18 NuttX/nuttx/arch/arm/src/libarch.a(stm32_timerisr.o)
 .debug_ranges  0x0000000000000e20       0x10 NuttX/nuttx/libc/libc.a(sq_addlast.o)
 .debug_ranges  0x0000000000000e30       0x10 NuttX/nuttx/libc/libc.a(sq_remfirst.o)
 .debug_ranges  0x0000000000000e40       0x10 NuttX/nuttx/libc/libc.a(sq_remafter.o)
 .debug_ranges  0x0000000000000e50       0x10 NuttX/nuttx/libc/libc.a(dq_addfirst.o)
 .debug_ranges  0x0000000000000e60       0x10 NuttX/nuttx/libc/libc.a(dq_rem.o)
 .debug_ranges  0x0000000000000e70       0x10 NuttX/nuttx/libc/libc.a(sem_setprotocol.o)
 .debug_ranges  0x0000000000000e80       0x90 NuttX/nuttx/libc/libc.a(lib_libvsprintf.o)
 .debug_ranges  0x0000000000000f10       0x18 NuttX/nuttx/libc/libc.a(lib_nulloutstream.o)
 .debug_ranges  0x0000000000000f28       0x10 NuttX/nuttx/libc/libc.a(lib_libnoflush.o)
 .debug_ranges  0x0000000000000f38       0x10 NuttX/nuttx/libc/libc.a(lib_memset.o)
 .debug_ranges  0x0000000000000f48       0x10 NuttX/nuttx/libc/libc.a(lib_strchr.o)
 .debug_ranges  0x0000000000000f58       0x10 NuttX/nuttx/libc/libc.a(lib_strlen.o)
 .debug_ranges  0x0000000000000f68       0x10 NuttX/nuttx/libc/libc.a(lib_strnlen.o)
 .debug_ranges  0x0000000000000f78       0x10 NuttX/nuttx/libc/libc.a(lib_strncpy.o)
 .debug_ranges  0x0000000000000f88       0x10 NuttX/nuttx/drivers/libdrivers.a(syslog_initialize.o)
 .debug_ranges  0x0000000000000f98       0x10 NuttX/nuttx/drivers/libdrivers.a(syslog_consolechannel.o)
 .debug_ranges  0x0000000000000fa8       0x68 NuttX/nuttx/drivers/libdrivers.a(syslog_device.o)
 .debug_ranges  0x0000000000001010       0x10 NuttX/nuttx/fs/libfs.a(fs_initialize.o)
 .debug_ranges  0x0000000000001020       0x50 NuttX/nuttx/fs/libfs.a(fs_files.o)
 .debug_ranges  0x0000000000001070       0x10 NuttX/nuttx/fs/libfs.a(fs_inodeaddref.o)
 .debug_ranges  0x0000000000001080       0x10 NuttX/nuttx/fs/libfs.a(fs_inoderelease.o)
 .debug_ranges  0x0000000000001090       0x18 NuttX/nuttx/fs/libfs.a(fs_filedetach.o)
 .debug_ranges  0x00000000000010a8       0x10 NuttX/nuttx/fs/libfs.a(fs_close.o)
 .debug_ranges  0x00000000000010b8       0x10 NuttX/nuttx/fs/libfs.a(fs_dupfd2.o)
 .debug_ranges  0x00000000000010c8       0x10 NuttX/nuttx/fs/libfs.a(fs_getfilep.o)
 .debug_ranges  0x00000000000010d8       0x18 NuttX/nuttx/fs/libfs.a(fs_open.o)
 .debug_ranges  0x00000000000010f0       0x18 NuttX/nuttx/fs/libfs.a(fs_write.o)
 .debug_ranges  0x0000000000001108       0x10 NuttX/nuttx/fs/libfs.a(fs_inodefind.o)
 .debug_ranges  0x0000000000001118       0x10 NuttX/nuttx/fs/libfs.a(fs_inodefree.o)
 .debug_ranges  0x0000000000001128       0x10 NuttX/nuttx/mm/libmm.a(umm_initialize.o)
 .debug_ranges  0x0000000000001138       0x18 NuttX/nuttx/mm/libmm.a(umm_sem.o)
 .debug_ranges  0x0000000000001150       0x10 NuttX/nuttx/mm/libmm.a(umm_free.o)
 .debug_ranges  0x0000000000001160       0x10 NuttX/nuttx/mm/libmm.a(umm_malloc.o)
 .debug_ranges  0x0000000000001170       0x18 NuttX/nuttx/mm/libmm.a(mm_initialize.o)
 .debug_ranges  0x0000000000001188       0x10 NuttX/nuttx/mm/libmm.a(mm_free.o)
 .debug_ranges  0x0000000000001198       0x10 NuttX/nuttx/sched/libsched.a(sched_getfiles.o)
 .debug_ranges  0x00000000000011a8       0x10 NuttX/nuttx/sched/libsched.a(sched_addreadytorun.o)
 .debug_ranges  0x00000000000011b8       0x10 NuttX/nuttx/sched/libsched.a(sched_removereadytorun.o)
 .debug_ranges  0x00000000000011c8       0x10 NuttX/nuttx/sched/libsched.a(sched_addprioritized.o)
 .debug_ranges  0x00000000000011d8       0x10 NuttX/nuttx/sched/libsched.a(sched_mergepending.o)
 .debug_ranges  0x00000000000011e8       0x10 NuttX/nuttx/sched/libsched.a(sched_addblocked.o)
 .debug_ranges  0x00000000000011f8       0x10 NuttX/nuttx/sched/libsched.a(sched_removeblocked.o)
 .debug_ranges  0x0000000000001208       0x10 NuttX/nuttx/sched/libsched.a(sched_processtimer.o)
 .debug_ranges  0x0000000000001218       0x10 NuttX/nuttx/sched/libsched.a(sem_destroy.o)
 .debug_ranges  0x0000000000001228       0x10 NuttX/nuttx/sched/libsched.a(task_exit.o)
 .debug_ranges  0x0000000000001238       0x10 NuttX/nuttx/sched/libsched.a(task_terminate.o)
 .debug_ranges  0x0000000000001248       0x38 NuttX/nuttx/sched/libsched.a(wd_start.o)
 .debug_ranges  0x0000000000001280       0x10 NuttX/nuttx/sched/libsched.a(sched_gettcb.o)
 .debug_ranges  0x0000000000001290       0x10 NuttX/nuttx/libc/libc.a(sq_addfirst.o)
 .debug_ranges  0x00000000000012a0       0x10 NuttX/nuttx/libc/libc.a(sq_addafter.o)
 .debug_ranges  0x00000000000012b0       0x10 NuttX/nuttx/libc/libc.a(dq_addlast.o)
 .debug_ranges  0x00000000000012c0       0x10 NuttX/nuttx/libc/libc.a(lib_strdup.o)
 .debug_ranges  0x00000000000012d0       0x88 src/modules/px4iofirmware/libpx4iofirmware.a(px4io.c.obj)
 .debug_ranges  0x0000000000001358       0xe0 src/modules/px4iofirmware/libpx4iofirmware.a(registers.c.obj)
 .debug_ranges  0x0000000000001438       0x58 src/modules/px4iofirmware/libpx4iofirmware.a(safety.c.obj)
 .debug_ranges  0x0000000000001490       0xd0 src/modules/px4iofirmware/libpx4iofirmware.a(serial.c.obj)
 .debug_ranges  0x0000000000001560       0x98 src/modules/px4iofirmware/libpx4iofirmware.a(pwm_limit.c.obj)
 .debug_ranges  0x00000000000015f8       0x18 src/modules/px4iofirmware/libpx4iofirmware.a(adc.c.obj)
 .debug_ranges  0x0000000000001610      0x228 src/modules/px4iofirmware/libpx4iofirmware.a(controls.c.obj)
 .debug_ranges  0x0000000000001838      0x120 src/modules/px4iofirmware/libpx4iofirmware.a(mixer.cpp.obj)
 .debug_ranges  0x0000000000001958       0x28 NuttX/apps/libapps.a(gnu_cxxinitialize.o)
 .debug_ranges  0x0000000000001980       0x10 NuttX/nuttx/arch/arm/src/libarch.a(up_udelay.o)
 .debug_ranges  0x0000000000001990       0x10 NuttX/nuttx/arch/arm/src/libarch.a(up_systemreset.o)
 .debug_ranges  0x00000000000019a0       0x10 src/drivers/boards/px4io-v2/libdrivers_board.a(init.c.obj)
 .debug_ranges  0x00000000000019b0      0x138 src/drivers/stm32/libdrivers_arch.a(drv_hrt.c.obj)
 .debug_ranges  0x0000000000001ae8       0x88 src/drivers/stm32/libdrivers_arch.a(drv_pwm_servo.c.obj)
 .debug_ranges  0x0000000000001b70      0x2a0 src/drivers/stm32/libdrivers_arch.a(drv_io_timer.c.obj)
 .debug_ranges  0x0000000000001e10       0xb8 src/lib/mixer/libmixer.a(mixer_group.cpp.obj)
 .debug_ranges  0x0000000000001ec8      0x108 src/lib/mixer/libmixer.a(mixer_helicopter.cpp.obj)
 .debug_ranges  0x0000000000001fd0      0x198 src/lib/mixer/libmixer.a(mixer_multirotor.cpp.obj)
 .debug_ranges  0x0000000000002168       0xa8 src/lib/mixer/libmixer.a(mixer_simple.cpp.obj)
 .debug_ranges  0x0000000000002210       0xa8 src/lib/mixer/libmixer.a(mixer.cpp.obj)
 .debug_ranges  0x00000000000022b8       0x78 src/lib/rc/librc.a(st24.cpp.obj)
 .debug_ranges  0x0000000000002330       0x40 src/lib/rc/librc.a(sumd.cpp.obj)
 .debug_ranges  0x0000000000002370      0x130 src/lib/rc/librc.a(sbus.cpp.obj)
 .debug_ranges  0x00000000000024a0      0x190 src/lib/rc/librc.a(dsm.cpp.obj)
 .debug_ranges  0x0000000000002630       0x10 NuttX/nuttx/libxx/libcxx.a(libxx_cxapurevirtual.o)
 .debug_ranges  0x0000000000002640       0x10 NuttX/nuttx/libxx/libcxx.a(libxx_eabi_atexit.o)
 .debug_ranges  0x0000000000002650       0x10 NuttX/nuttx/libxx/libcxx.a(libxx_cxa_atexit.o)
 .debug_ranges  0x0000000000002660       0x10 NuttX/nuttx/libxx/libcxx.a(libxx_delete.o)
 .debug_ranges  0x0000000000002670       0x10 NuttX/nuttx/libxx/libcxx.a(libxx_deletea.o)
 .debug_ranges  0x0000000000002680       0x10 NuttX/nuttx/libxx/libcxx.a(libxx_new.o)
 .debug_ranges  0x0000000000002690       0x10 NuttX/nuttx/libxx/libcxx.a(libxx_newa.o)
 .debug_ranges  0x00000000000026a0       0x18 NuttX/nuttx/libc/libc.a(lib_crc32.o)
 .debug_ranges  0x00000000000026b8       0x10 NuttX/nuttx/libc/libc.a(sq_rem.o)
 .debug_ranges  0x00000000000026c8       0x10 NuttX/nuttx/libc/libc.a(lib_printf.o)
 .debug_ranges  0x00000000000026d8       0x10 NuttX/nuttx/libc/libc.a(lib_vsnprintf.o)
 .debug_ranges  0x00000000000026e8       0x18 NuttX/nuttx/libc/libc.a(lib_memoutstream.o)
 .debug_ranges  0x0000000000002700       0x60 NuttX/nuttx/libc/libc.a(lib_sscanf.o)
 .debug_ranges  0x0000000000002760       0x28 NuttX/nuttx/libc/libc.a(lib_strtol.o)
 .debug_ranges  0x0000000000002788       0x10 NuttX/nuttx/libc/libc.a(lib_strtoul.o)
 .debug_ranges  0x0000000000002798       0x10 NuttX/nuttx/libc/libc.a(lib_checkbase.o)
 .debug_ranges  0x00000000000027a8       0x10 NuttX/nuttx/libc/libc.a(lib_isbasedigit.o)
 .debug_ranges  0x00000000000027b8       0x10 NuttX/nuttx/libc/libc.a(lib_memchr.o)
 .debug_ranges  0x00000000000027c8       0x10 NuttX/nuttx/libc/libc.a(lib_memmove.o)
 .debug_ranges  0x00000000000027d8       0x10 NuttX/nuttx/libc/libc.a(lib_skipspace.o)
 .debug_ranges  0x00000000000027e8       0x10 NuttX/nuttx/libc/libc.a(lib_strcmp.o)
 .debug_ranges  0x00000000000027f8       0x10 NuttX/nuttx/libc/libc.a(lib_strcspn.o)
 .debug_ranges  0x0000000000002808       0x10 NuttX/nuttx/libc/libc.a(lib_tcgetattr.o)
 .debug_ranges  0x0000000000002818       0x10 NuttX/nuttx/libc/libc.a(lib_tcsetattr.o)
 .debug_ranges  0x0000000000002828       0x18 NuttX/nuttx/fs/libfs.a(fs_ioctl.o)
 .debug_ranges  0x0000000000002840       0x30 NuttX/nuttx/fs/libfs.a(fs_read.o)
 .debug_ranges  0x0000000000002870       0x10 NuttX/nuttx/mm/libmm.a(umm_mallinfo.o)
 .debug_ranges  0x0000000000002880       0x10 NuttX/nuttx/mm/libmm.a(mm_mallinfo.o)
 .debug_ranges  0x0000000000002890       0xb8 src/lib/perf/libperf.a(perf_counter.c.obj)

.debug_str      0x0000000000000000     0x72d6
 .debug_str     0x0000000000000000      0x2ec NuttX/nuttx/arch/arm/src/libarch.a(stm32_start.o)
                                        0x334 (size before relaxing)
 .debug_str     0x00000000000002ec       0xb8 NuttX/nuttx/arch/arm/src/libarch.a(stm32_rcc.o)
                                        0x363 (size before relaxing)
 .debug_str     0x00000000000003a4       0xc4 NuttX/nuttx/arch/arm/src/libarch.a(stm32_gpio.o)
                                        0x347 (size before relaxing)
 .debug_str     0x0000000000000468       0x25 NuttX/nuttx/arch/arm/src/libarch.a(stm32_lowputc.o)
                                        0x2cd (size before relaxing)
 .debug_str     0x000000000000048d      0x5c0 NuttX/nuttx/arch/arm/src/libarch.a(stm32_serial.o)
                                        0xa65 (size before relaxing)
 .debug_str     0x0000000000000a4d       0x18 NuttX/nuttx/arch/arm/src/libarch.a(up_modifyreg32.o)
                                        0x2f9 (size before relaxing)
 .debug_str     0x0000000000000a65       0x15 NuttX/nuttx/arch/arm/src/libarch.a(up_vectors.o)
                                        0x22f (size before relaxing)
 .debug_str     0x0000000000000a7a       0x2a NuttX/nuttx/arch/arm/src/libarch.a(up_exception.o)
                                         0x75 (size before relaxing)
 .debug_str     0x0000000000000aa4       0x79 NuttX/nuttx/arch/arm/src/libarch.a(stm32_irq.o)
                                        0x3a7 (size before relaxing)
 .debug_str     0x0000000000000b1d      0x453 NuttX/nuttx/arch/arm/src/libarch.a(stm32_dma.o)
                                        0x973 (size before relaxing)
 .debug_str     0x0000000000000f70      0x101 NuttX/nuttx/arch/arm/src/libarch.a(up_assert.o)
                                        0x86f (size before relaxing)
 .debug_str     0x0000000000001071       0x33 NuttX/nuttx/arch/arm/src/libarch.a(up_doirq.o)
                                        0x302 (size before relaxing)
 .debug_str     0x00000000000010a4       0x24 NuttX/nuttx/arch/arm/src/libarch.a(up_hardfault.o)
                                        0x33b (size before relaxing)
 .debug_str     0x00000000000010c8       0x2f NuttX/nuttx/arch/arm/src/libarch.a(up_svcall.o)
                                        0x2ee (size before relaxing)
 .debug_str     0x00000000000010f7       0x63 NuttX/nuttx/arch/arm/src/libarch.a(up_checkstack.o)
                                        0x779 (size before relaxing)
 .debug_str     0x000000000000115a       0x69 NuttX/nuttx/libc/libc.a(arch_memcpy.o)
                                         0x78 (size before relaxing)
 .debug_str     0x00000000000011c3       0x1d NuttX/nuttx/libc/libc.a(sem_init.o)
                                        0x264 (size before relaxing)
 .debug_str     0x00000000000011e0       0x19 NuttX/nuttx/libc/libc.a(lib_abort.o)
                                        0x272 (size before relaxing)
 .debug_str     0x00000000000011f9       0x14 NuttX/nuttx/libc/libc.a(lib_strcpy.o)
                                        0x224 (size before relaxing)
 .debug_str     0x000000000000120d       0x49 NuttX/nuttx/libc/libc.a(lib_syslog.o)
                                        0x27e (size before relaxing)
 .debug_str     0x0000000000001256       0x2b NuttX/nuttx/libc/libc.a(lib_setlogmask.o)
                                        0x28c (size before relaxing)
 .debug_str     0x0000000000001281       0x19 NuttX/nuttx/libc/libc.a(lib_cfgetspeed.o)
                                        0x2a2 (size before relaxing)
 .debug_str     0x000000000000129a       0x19 NuttX/nuttx/libc/libc.a(lib_cfsetspeed.o)
                                        0x2a8 (size before relaxing)
 .debug_str     0x00000000000012b3      0x199 NuttX/nuttx/drivers/libdrivers.a(serial.o)
                                        0x6d2 (size before relaxing)
 .debug_str     0x000000000000144c       0x1b NuttX/nuttx/drivers/libdrivers.a(serial_io.o)
                                        0x4c7 (size before relaxing)
 .debug_str     0x0000000000001467       0x7f NuttX/nuttx/drivers/libdrivers.a(vsyslog.o)
                                        0x340 (size before relaxing)
 .debug_str     0x00000000000014e6       0xa0 NuttX/nuttx/drivers/libdrivers.a(syslog_stream.o)
                                        0x371 (size before relaxing)
 .debug_str     0x0000000000001586       0x3a NuttX/nuttx/drivers/libdrivers.a(syslog_emergstream.o)
                                        0x354 (size before relaxing)
 .debug_str     0x00000000000015c0       0x15 NuttX/nuttx/drivers/libdrivers.a(syslog_putc.o)
                                        0x307 (size before relaxing)
 .debug_str     0x00000000000015d5       0x16 NuttX/nuttx/drivers/libdrivers.a(syslog_force.o)
                                        0x295 (size before relaxing)
 .debug_str     0x00000000000015eb       0x2d NuttX/nuttx/drivers/libdrivers.a(syslog_channel.o)
                                        0x306 (size before relaxing)
 .debug_str     0x0000000000001618       0x98 NuttX/nuttx/fs/libfs.a(fs_registerdriver.o)
                                        0x4a7 (size before relaxing)
 .debug_str     0x00000000000016b0       0x52 NuttX/nuttx/fs/libfs.a(fs_inode.o)
                                        0x4f1 (size before relaxing)
 .debug_str     0x0000000000001702       0x97 NuttX/nuttx/fs/libfs.a(fs_inodereserve.o)
                                        0x515 (size before relaxing)
 .debug_str     0x0000000000001799       0x46 NuttX/nuttx/fs/libfs.a(fs_inodesearch.o)
                                        0x4d7 (size before relaxing)
 .debug_str     0x00000000000017df       0x61 NuttX/nuttx/mm/libmm.a(umm_zalloc.o)
                                        0x337 (size before relaxing)
 .debug_str     0x0000000000001840       0x17 NuttX/nuttx/mm/libmm.a(umm_globals.o)
                                        0x31e (size before relaxing)
 .debug_str     0x0000000000001857       0x2f NuttX/nuttx/mm/libmm.a(mm_zalloc.o)
                                        0x352 (size before relaxing)
 .debug_str     0x0000000000001886       0x55 NuttX/nuttx/mm/libmm.a(mm_malloc.o)
                                        0x386 (size before relaxing)
 .debug_str     0x00000000000018db       0x35 NuttX/nuttx/mm/libmm.a(mm_sem.o)
                                        0x3d3 (size before relaxing)
 .debug_str     0x0000000000001910       0x1a NuttX/nuttx/mm/libmm.a(mm_addfreechunk.o)
                                        0x351 (size before relaxing)
 .debug_str     0x000000000000192a       0x16 NuttX/nuttx/mm/libmm.a(mm_size2ndx.o)
                                        0x329 (size before relaxing)
 .debug_str     0x0000000000001940       0x64 NuttX/nuttx/sched/libsched.a(errno_getptr.o)
                                        0x77c (size before relaxing)
 .debug_str     0x00000000000019a4      0x2e7 NuttX/nuttx/sched/libsched.a(os_start.o)
                                        0xa8b (size before relaxing)
 .debug_str     0x0000000000001c8b       0x42 NuttX/nuttx/sched/libsched.a(os_bringup.o)
                                        0x2d3 (size before relaxing)
 .debug_str     0x0000000000001ccd       0x11 NuttX/nuttx/sched/libsched.a(irq_attach.o)
                                        0x30b (size before relaxing)
 .debug_str     0x0000000000001cde       0x13 NuttX/nuttx/sched/libsched.a(irq_dispatch.o)
                                        0x2aa (size before relaxing)
 .debug_str     0x0000000000001cf1       0x2b NuttX/nuttx/sched/libsched.a(irq_unexpectedisr.o)
                                        0x2fe (size before relaxing)
 .debug_str     0x0000000000001d1c       0x4f NuttX/nuttx/sched/libsched.a(sched_garbage.o)
                                        0x767 (size before relaxing)
 .debug_str     0x0000000000001d6b       0x26 NuttX/nuttx/sched/libsched.a(sched_foreach.o)
                                        0x723 (size before relaxing)
 .debug_str     0x0000000000001d91       0x17 NuttX/nuttx/sched/libsched.a(sched_idletask.o)
                                        0x6dd (size before relaxing)
 .debug_str     0x0000000000001da8       0x23 NuttX/nuttx/sched/libsched.a(sem_wait.o)
                                        0x7c1 (size before relaxing)
 .debug_str     0x0000000000001dcb       0x18 NuttX/nuttx/sched/libsched.a(sem_trywait.o)
                                        0x71e (size before relaxing)
 .debug_str     0x0000000000001de3       0x2a NuttX/nuttx/sched/libsched.a(sem_post.o)
                                        0x732 (size before relaxing)
 .debug_str     0x0000000000001e0d       0x2e NuttX/nuttx/sched/libsched.a(sem_reset.o)
                                        0x31d (size before relaxing)
 .debug_str     0x0000000000001e3b       0xae NuttX/nuttx/sched/libsched.a(task_create.o)
                                        0x7c5 (size before relaxing)
 .debug_str     0x0000000000001ee9       0xb0 NuttX/nuttx/sched/libsched.a(task_setup.o)
                                        0x864 (size before relaxing)
 .debug_str     0x0000000000001f99       0x15 NuttX/nuttx/sched/libsched.a(task_activate.o)
                                        0x584 (size before relaxing)
 .debug_str     0x0000000000001fae       0x26 NuttX/nuttx/sched/libsched.a(task_start.o)
                                        0x6de (size before relaxing)
 .debug_str     0x0000000000001fd4       0x13 NuttX/nuttx/sched/libsched.a(task_getpid.o)
                                        0x6c2 (size before relaxing)
 .debug_str     0x0000000000001fe7       0x1a NuttX/nuttx/sched/libsched.a(exit.o)
                                        0x6cf (size before relaxing)
 .debug_str     0x0000000000002001       0x15 NuttX/nuttx/sched/libsched.a(group_create.o)
                                        0x5fd (size before relaxing)
 .debug_str     0x0000000000002016       0x2c NuttX/nuttx/sched/libsched.a(group_setupidlefiles.o)
                                        0x601 (size before relaxing)
 .debug_str     0x0000000000002042       0x1d NuttX/nuttx/sched/libsched.a(group_setuptaskfiles.o)
                                        0x6f4 (size before relaxing)
 .debug_str     0x000000000000205f       0x15 NuttX/nuttx/sched/libsched.a(irq_initialize.o)
                                        0x29f (size before relaxing)
 .debug_str     0x0000000000002074       0x53 NuttX/nuttx/sched/libsched.a(sched_releasetcb.o)
                                        0x724 (size before relaxing)
 .debug_str     0x00000000000020c7       0x13 NuttX/nuttx/sched/libsched.a(sched_lock.o)
                                        0x6db (size before relaxing)
 .debug_str     0x00000000000020da       0x28 NuttX/nuttx/sched/libsched.a(sched_unlock.o)
                                        0x75c (size before relaxing)
 .debug_str     0x0000000000002102       0x2e NuttX/nuttx/sched/libsched.a(task_exithook.o)
                                        0x754 (size before relaxing)
 .debug_str     0x0000000000002130       0x2b NuttX/nuttx/sched/libsched.a(task_recover.o)
                                        0x701 (size before relaxing)
 .debug_str     0x000000000000215b       0x26 NuttX/nuttx/sched/libsched.a(wd_recover.o)
                                        0x5de (size before relaxing)
 .debug_str     0x0000000000002181       0x34 NuttX/nuttx/sched/libsched.a(group_leave.o)
                                        0x68f (size before relaxing)
 .debug_str     0x00000000000021b5       0x1e NuttX/nuttx/sched/libsched.a(sched_free.o)
                                        0x756 (size before relaxing)
 .debug_str     0x00000000000021d3       0x18 NuttX/nuttx/sched/libsched.a(sem_recover.o)
                                        0x606 (size before relaxing)
 .debug_str     0x00000000000021eb       0x2f NuttX/nuttx/sched/libsched.a(wd_cancel.o)
                                        0x761 (size before relaxing)
 .debug_str     0x000000000000221a       0x11 NuttX/nuttx/sched/libsched.a(wd_delete.o)
                                        0x488 (size before relaxing)
 .debug_str     0x000000000000222b       0x1e NuttX/nuttx/sched/libsched.a(wd_initialize.o)
                                        0x310 (size before relaxing)
 .debug_str     0x0000000000002249       0x1a NuttX/nuttx/arch/arm/src/libarch.a(stm32_allocateheap.o)
                                        0x404 (size before relaxing)
 .debug_str     0x0000000000002263       0x12 NuttX/nuttx/arch/arm/src/libarch.a(stm32_idle.o)
                                        0x2d9 (size before relaxing)
 .debug_str     0x0000000000002275       0x93 NuttX/nuttx/arch/arm/src/libarch.a(up_blocktask.o)
                                        0x83a (size before relaxing)
 .debug_str     0x0000000000002308       0x1b NuttX/nuttx/arch/arm/src/libarch.a(up_copyfullstate.o)
                                        0x29f (size before relaxing)
 .debug_str     0x0000000000002323       0x57 NuttX/nuttx/arch/arm/src/libarch.a(up_createstack.o)
                                        0x6b6 (size before relaxing)
 .debug_str     0x000000000000237a       0x20 NuttX/nuttx/arch/arm/src/libarch.a(up_mdelay.o)
                                        0x286 (size before relaxing)
 .debug_str     0x000000000000239a       0x31 NuttX/nuttx/arch/arm/src/libarch.a(up_exit.o)
                                        0x792 (size before relaxing)
 .debug_str     0x00000000000023cb       0x64 NuttX/nuttx/arch/arm/src/libarch.a(up_initialize.o)
                                        0x3da (size before relaxing)
 .debug_str     0x000000000000242f       0x1a NuttX/nuttx/arch/arm/src/libarch.a(up_initialstate.o)
                                        0x5a6 (size before relaxing)
 .debug_str     0x0000000000002449       0x1d NuttX/nuttx/arch/arm/src/libarch.a(up_interruptcontext.o)
                                        0x2dd (size before relaxing)
 .debug_str     0x0000000000002466       0x1c NuttX/nuttx/arch/arm/src/libarch.a(up_releasepending.o)
                                        0x76a (size before relaxing)
 .debug_str     0x0000000000002482       0x1e NuttX/nuttx/arch/arm/src/libarch.a(up_releasestack.o)
                                        0x642 (size before relaxing)
 .debug_str     0x00000000000024a0       0x2a NuttX/nuttx/arch/arm/src/libarch.a(up_stackframe.o)
                                        0x59c (size before relaxing)
 .debug_str     0x00000000000024ca       0x41 NuttX/nuttx/arch/arm/src/libarch.a(up_unblocktask.o)
                                        0x83e (size before relaxing)
 .debug_str     0x000000000000250b       0x24 NuttX/nuttx/arch/arm/src/libarch.a(up_fullcontextrestore.o)
                                         0x7e (size before relaxing)
 .debug_str     0x000000000000252f       0x1f NuttX/nuttx/arch/arm/src/libarch.a(up_switchcontext.o)
                                         0x79 (size before relaxing)
 .debug_str     0x000000000000254e       0x39 NuttX/nuttx/arch/arm/src/libarch.a(stm32_timerisr.o)
                                        0x363 (size before relaxing)
 .debug_str     0x0000000000002587       0x13 NuttX/nuttx/libc/libc.a(sq_addlast.o)
                                        0x269 (size before relaxing)
 .debug_str     0x000000000000259a       0x14 NuttX/nuttx/libc/libc.a(sq_remfirst.o)
                                        0x266 (size before relaxing)
 .debug_str     0x00000000000025ae       0x14 NuttX/nuttx/libc/libc.a(sq_remafter.o)
                                        0x26b (size before relaxing)
 .debug_str     0x00000000000025c2       0x14 NuttX/nuttx/libc/libc.a(dq_addfirst.o)
                                        0x271 (size before relaxing)
 .debug_str     0x00000000000025d6        0xf NuttX/nuttx/libc/libc.a(dq_rem.o)
                                        0x271 (size before relaxing)
 .debug_str     0x00000000000025e5       0x1c NuttX/nuttx/libc/libc.a(sem_setprotocol.o)
                                        0x2aa (size before relaxing)
 .debug_str     0x0000000000002601      0x100 NuttX/nuttx/libc/libc.a(lib_libvsprintf.o)
                                        0x405 (size before relaxing)
 .debug_str     0x0000000000002701       0x2d NuttX/nuttx/libc/libc.a(lib_nulloutstream.o)
                                        0x2d8 (size before relaxing)
 .debug_str     0x000000000000272e       0x23 NuttX/nuttx/libc/libc.a(lib_libnoflush.o)
                                        0x2ae (size before relaxing)
 .debug_str     0x0000000000002751       0x14 NuttX/nuttx/libc/libc.a(lib_memset.o)
                                        0x23b (size before relaxing)
 .debug_str     0x0000000000002765       0x14 NuttX/nuttx/libc/libc.a(lib_strchr.o)
                                        0x21f (size before relaxing)
 .debug_str     0x0000000000002779       0x14 NuttX/nuttx/libc/libc.a(lib_strlen.o)
                                        0x23b (size before relaxing)
 .debug_str     0x000000000000278d       0x1c NuttX/nuttx/libc/libc.a(lib_strnlen.o)
                                        0x244 (size before relaxing)
 .debug_str     0x00000000000027a9       0x15 NuttX/nuttx/libc/libc.a(lib_strncpy.o)
                                        0x242 (size before relaxing)
 .debug_str     0x00000000000027be       0x21 NuttX/nuttx/drivers/libdrivers.a(syslog_initialize.o)
                                        0x34f (size before relaxing)
 .debug_str     0x00000000000027df       0x4e NuttX/nuttx/drivers/libdrivers.a(syslog_consolechannel.o)
                                        0x336 (size before relaxing)
 .debug_str     0x000000000000282d      0x190 NuttX/nuttx/drivers/libdrivers.a(syslog_device.o)
                                        0x6fd (size before relaxing)
 .debug_str     0x00000000000029bd       0x10 NuttX/nuttx/fs/libfs.a(fs_initialize.o)
                                        0x461 (size before relaxing)
 .debug_str     0x00000000000029cd       0xc0 NuttX/nuttx/fs/libfs.a(fs_files.o)
                                        0x5ae (size before relaxing)
 .debug_str     0x0000000000002a8d       0x17 NuttX/nuttx/fs/libfs.a(fs_inodeaddref.o)
                                        0x472 (size before relaxing)
 .debug_str     0x0000000000002aa4       0x23 NuttX/nuttx/fs/libfs.a(fs_inoderelease.o)
                                        0x484 (size before relaxing)
 .debug_str     0x0000000000002ac7       0x2a NuttX/nuttx/fs/libfs.a(fs_filedetach.o)
                                        0x4d1 (size before relaxing)
 .debug_str     0x0000000000002af1        0xf NuttX/nuttx/fs/libfs.a(fs_close.o)
                                        0x46a (size before relaxing)
 .debug_str     0x0000000000002b00       0x1c NuttX/nuttx/fs/libfs.a(fs_dupfd2.o)
                                        0x479 (size before relaxing)
 .debug_str     0x0000000000002b1c       0x12 NuttX/nuttx/fs/libfs.a(fs_getfilep.o)
                                        0x49a (size before relaxing)
 .debug_str     0x0000000000002b2e       0x39 NuttX/nuttx/fs/libfs.a(fs_open.o)
                                        0x51b (size before relaxing)
 .debug_str     0x0000000000002b67        0xf NuttX/nuttx/fs/libfs.a(fs_write.o)
                                        0x482 (size before relaxing)
 .debug_str     0x0000000000002b76       0x15 NuttX/nuttx/fs/libfs.a(fs_inodefind.o)
                                        0x4ad (size before relaxing)
 .debug_str     0x0000000000002b8b       0x15 NuttX/nuttx/fs/libfs.a(fs_inodefree.o)
                                        0x45c (size before relaxing)
 .debug_str     0x0000000000002ba0       0x1a NuttX/nuttx/mm/libmm.a(umm_initialize.o)
                                        0x353 (size before relaxing)
 .debug_str     0x0000000000002bba       0x13 NuttX/nuttx/mm/libmm.a(umm_sem.o)
                                        0x35e (size before relaxing)
 .debug_str     0x0000000000002bcd       0x1c NuttX/nuttx/mm/libmm.a(umm_free.o)
                                        0x331 (size before relaxing)
 .debug_str     0x0000000000002be9       0x16 NuttX/nuttx/mm/libmm.a(umm_malloc.o)
                                        0x34c (size before relaxing)
 .debug_str     0x0000000000002bff       0x2e NuttX/nuttx/mm/libmm.a(mm_initialize.o)
                                        0x3a1 (size before relaxing)
 .debug_str     0x0000000000002c2d       0x1c NuttX/nuttx/mm/libmm.a(mm_free.o)
                                        0x371 (size before relaxing)
 .debug_str     0x0000000000002c49       0x17 NuttX/nuttx/sched/libsched.a(sched_getfiles.o)
                                        0x6ce (size before relaxing)
 .debug_str     0x0000000000002c60       0x36 NuttX/nuttx/sched/libsched.a(sched_addreadytorun.o)
                                        0x7a9 (size before relaxing)
 .debug_str     0x0000000000002c96       0x2f NuttX/nuttx/sched/libsched.a(sched_removereadytorun.o)
                                        0x7ac (size before relaxing)
 .debug_str     0x0000000000002cc5       0x1d NuttX/nuttx/sched/libsched.a(sched_addprioritized.o)
                                        0x6e4 (size before relaxing)
 .debug_str     0x0000000000002ce2       0x2c NuttX/nuttx/sched/libsched.a(sched_mergepending.o)
                                        0x7a8 (size before relaxing)
 .debug_str     0x0000000000002d0e       0x24 NuttX/nuttx/sched/libsched.a(sched_addblocked.o)
                                        0x795 (size before relaxing)
 .debug_str     0x0000000000002d32       0x1c NuttX/nuttx/sched/libsched.a(sched_removeblocked.o)
                                        0x779 (size before relaxing)
 .debug_str     0x0000000000002d4e       0x30 NuttX/nuttx/sched/libsched.a(sched_processtimer.o)
                                        0x737 (size before relaxing)
 .debug_str     0x0000000000002d7e       0x18 NuttX/nuttx/sched/libsched.a(sem_destroy.o)
                                        0x2ad (size before relaxing)
 .debug_str     0x0000000000002d96       0x20 NuttX/nuttx/sched/libsched.a(task_exit.o)
                                        0x7a3 (size before relaxing)
 .debug_str     0x0000000000002db6       0x34 NuttX/nuttx/sched/libsched.a(task_terminate.o)
                                        0x7fb (size before relaxing)
 .debug_str     0x0000000000002dea       0x68 NuttX/nuttx/sched/libsched.a(wd_start.o)
                                        0x7f0 (size before relaxing)
 .debug_str     0x0000000000002e52       0x15 NuttX/nuttx/sched/libsched.a(sched_gettcb.o)
                                        0x6ce (size before relaxing)
 .debug_str     0x0000000000002e67       0x14 NuttX/nuttx/libc/libc.a(sq_addfirst.o)
                                        0x26b (size before relaxing)
 .debug_str     0x0000000000002e7b       0x14 NuttX/nuttx/libc/libc.a(sq_addafter.o)
                                        0x27b (size before relaxing)
 .debug_str     0x0000000000002e8f       0x13 NuttX/nuttx/libc/libc.a(dq_addlast.o)
                                        0x26f (size before relaxing)
 .debug_str     0x0000000000002ea2       0x19 NuttX/nuttx/libc/libc.a(lib_strdup.o)
                                        0x289 (size before relaxing)
 .debug_str     0x0000000000002ebb      0x6de src/modules/px4iofirmware/libpx4iofirmware.a(px4io.c.obj)
                                        0x938 (size before relaxing)
 .debug_str     0x0000000000003599      0x184 src/modules/px4iofirmware/libpx4iofirmware.a(registers.c.obj)
                                        0x764 (size before relaxing)
 .debug_str     0x000000000000371d       0x92 src/modules/px4iofirmware/libpx4iofirmware.a(safety.c.obj)
                                        0x6ab (size before relaxing)
 .debug_str     0x00000000000037af       0xf7 src/modules/px4iofirmware/libpx4iofirmware.a(serial.c.obj)
                                        0x7c0 (size before relaxing)
 .debug_str     0x00000000000038a6      0x14f src/modules/px4iofirmware/libpx4iofirmware.a(pwm_limit.c.obj)
                                        0x488 (size before relaxing)
 .debug_str     0x00000000000039f5       0x2f src/modules/px4iofirmware/libpx4iofirmware.a(adc.c.obj)
                                        0x60c (size before relaxing)
 .debug_str     0x0000000000003a24      0x285 src/modules/px4iofirmware/libpx4iofirmware.a(controls.c.obj)
                                        0x8e4 (size before relaxing)
 .debug_str     0x0000000000003ca9      0x6e7 src/modules/px4iofirmware/libpx4iofirmware.a(mixer.cpp.obj)
                                        0xd36 (size before relaxing)
 .debug_str     0x0000000000004390       0x8c NuttX/apps/libapps.a(gnu_cxxinitialize.o)
                                        0x25b (size before relaxing)
 .debug_str     0x000000000000441c       0x2b NuttX/nuttx/arch/arm/src/libarch.a(up_udelay.o)
                                        0x291 (size before relaxing)
 .debug_str     0x0000000000004447       0x19 NuttX/nuttx/arch/arm/src/libarch.a(up_systemreset.o)
                                        0x22a (size before relaxing)
 .debug_str     0x0000000000004460       0x29 src/drivers/boards/px4io-v2/libdrivers_board.a(init.c.obj)
                                        0x302 (size before relaxing)
 .debug_str     0x0000000000004489      0x223 src/drivers/stm32/libdrivers_arch.a(drv_hrt.c.obj)
                                        0x72f (size before relaxing)
 .debug_str     0x00000000000046ac      0x30e src/drivers/stm32/libdrivers_arch.a(drv_pwm_servo.c.obj)
                                        0x6ca (size before relaxing)
 .debug_str     0x00000000000049ba      0x2d7 src/drivers/stm32/libdrivers_arch.a(drv_io_timer.c.obj)
                                        0x99a (size before relaxing)
 .debug_str     0x0000000000004c91       0x31 src/drivers/boards/px4io-v2/libdrivers_board.a(timer_config.c.obj)
                                        0x504 (size before relaxing)
 .debug_str     0x0000000000004cc2      0x6de src/lib/mixer/libmixer.a(mixer_group.cpp.obj)
                                        0xdc8 (size before relaxing)
 .debug_str     0x00000000000053a0      0x444 src/lib/mixer/libmixer.a(mixer_helicopter.cpp.obj)
                                        0xeb5 (size before relaxing)
 .debug_str     0x00000000000057e4      0x6b4 src/lib/mixer/libmixer.a(mixer_multirotor.cpp.obj)
                                       0x13e0 (size before relaxing)
 .debug_str     0x0000000000005e98      0x2ec src/lib/mixer/libmixer.a(mixer_simple.cpp.obj)
                                        0xbef (size before relaxing)
 .debug_str     0x0000000000006184       0xd4 src/lib/mixer/libmixer.a(mixer.cpp.obj)
                                        0xaa0 (size before relaxing)
 .debug_str     0x0000000000006258      0x2a0 src/lib/rc/librc.a(st24.cpp.obj)
                                        0x7f5 (size before relaxing)
 .debug_str     0x00000000000064f8      0x13c src/lib/rc/librc.a(sumd.cpp.obj)
                                        0x7a9 (size before relaxing)
 .debug_str     0x0000000000006634      0x24a src/lib/rc/librc.a(sbus.cpp.obj)
                                        0x9ce (size before relaxing)
 .debug_str     0x000000000000687e      0x207 src/lib/rc/librc.a(dsm.cpp.obj)
                                        0x978 (size before relaxing)
 .debug_str     0x0000000000006a85       0x1f src/lib/rc/librc.a(common_rc.cpp.obj)
                                        0x5e0 (size before relaxing)
 .debug_str     0x0000000000006aa4      0x1f3 NuttX/nuttx/libxx/libcxx.a(libxx_cxapurevirtual.o)
                                        0x266 (size before relaxing)
 .debug_str     0x0000000000006c97       0x50 NuttX/nuttx/libxx/libcxx.a(libxx_eabi_atexit.o)
                                        0x403 (size before relaxing)
 .debug_str     0x0000000000006ce7       0x15 NuttX/nuttx/libxx/libcxx.a(libxx_cxa_atexit.o)
                                        0x3ec (size before relaxing)
 .debug_str     0x0000000000006cfc       0x11 NuttX/nuttx/libxx/libcxx.a(libxx_delete.o)
                                        0x3d1 (size before relaxing)
 .debug_str     0x0000000000006d0d       0x12 NuttX/nuttx/libxx/libcxx.a(libxx_deletea.o)
                                        0x3d5 (size before relaxing)
 .debug_str     0x0000000000006d1f       0x62 NuttX/nuttx/libxx/libcxx.a(libxx_new.o)
                                        0x4ae (size before relaxing)
 .debug_str     0x0000000000006d81        0xf NuttX/nuttx/libxx/libcxx.a(libxx_newa.o)
                                        0x4b2 (size before relaxing)
 .debug_str     0x0000000000006d90       0x2a NuttX/nuttx/libc/libc.a(lib_crc32.o)
                                        0x278 (size before relaxing)
 .debug_str     0x0000000000006dba        0xf NuttX/nuttx/libc/libc.a(sq_rem.o)
                                        0x272 (size before relaxing)
 .debug_str     0x0000000000006dc9       0x13 NuttX/nuttx/libc/libc.a(lib_printf.o)
                                        0x29c (size before relaxing)
 .debug_str     0x0000000000006ddc       0x3a NuttX/nuttx/libc/libc.a(lib_vsnprintf.o)
                                        0x36e (size before relaxing)
 .debug_str     0x0000000000006e16       0x3a NuttX/nuttx/libc/libc.a(lib_memoutstream.o)
                                        0x324 (size before relaxing)
 .debug_str     0x0000000000006e50       0x79 NuttX/nuttx/libc/libc.a(lib_sscanf.o)
                                        0x374 (size before relaxing)
 .debug_str     0x0000000000006ec9       0x34 NuttX/nuttx/libc/libc.a(lib_strtol.o)
                                        0x2b7 (size before relaxing)
 .debug_str     0x0000000000006efd       0x33 NuttX/nuttx/libc/libc.a(lib_strtoul.o)
                                        0x2cd (size before relaxing)
 .debug_str     0x0000000000006f30       0x1c NuttX/nuttx/libc/libc.a(lib_checkbase.o)
                                        0x293 (size before relaxing)
 .debug_str     0x0000000000006f4c       0x19 NuttX/nuttx/libc/libc.a(lib_isbasedigit.o)
                                        0x288 (size before relaxing)
 .debug_str     0x0000000000006f65       0x14 NuttX/nuttx/libc/libc.a(lib_memchr.o)
                                        0x23b (size before relaxing)
 .debug_str     0x0000000000006f79       0x15 NuttX/nuttx/libc/libc.a(lib_memmove.o)
                                        0x248 (size before relaxing)
 .debug_str     0x0000000000006f8e       0x17 NuttX/nuttx/libc/libc.a(lib_skipspace.o)
                                        0x286 (size before relaxing)
 .debug_str     0x0000000000006fa5       0x14 NuttX/nuttx/libc/libc.a(lib_strcmp.o)
                                        0x226 (size before relaxing)
 .debug_str     0x0000000000006fb9       0x1c NuttX/nuttx/libc/libc.a(lib_strcspn.o)
                                        0x24b (size before relaxing)
 .debug_str     0x0000000000006fd5       0x18 NuttX/nuttx/libc/libc.a(lib_tcgetattr.o)
                                        0x2a6 (size before relaxing)
 .debug_str     0x0000000000006fed       0x20 NuttX/nuttx/libc/libc.a(lib_tcsetattr.o)
                                        0x2ae (size before relaxing)
 .debug_str     0x000000000000700d       0x1a NuttX/nuttx/fs/libfs.a(fs_ioctl.o)
                                        0x47b (size before relaxing)
 .debug_str     0x0000000000007027       0x18 NuttX/nuttx/fs/libfs.a(fs_read.o)
                                        0x471 (size before relaxing)
 .debug_str     0x000000000000703f       0x24 NuttX/nuttx/mm/libmm.a(umm_mallinfo.o)
                                        0x36b (size before relaxing)
 .debug_str     0x0000000000007063       0x16 NuttX/nuttx/mm/libmm.a(mm_mallinfo.o)
                                        0x395 (size before relaxing)
 .debug_str     0x0000000000007079      0x25d src/lib/perf/libperf.a(perf_counter.c.obj)
                                        0x6f4 (size before relaxing)

.debug_frame    0x0000000000000000     0x4324
 .debug_frame   0x0000000000000000       0x38 NuttX/nuttx/arch/arm/src/libarch.a(stm32_start.o)
 .debug_frame   0x0000000000000038       0x34 NuttX/nuttx/arch/arm/src/libarch.a(stm32_rcc.o)
 .debug_frame   0x000000000000006c       0x74 NuttX/nuttx/arch/arm/src/libarch.a(stm32_gpio.o)
 .debug_frame   0x00000000000000e0       0x38 NuttX/nuttx/arch/arm/src/libarch.a(stm32_lowputc.o)
 .debug_frame   0x0000000000000118      0x2d0 NuttX/nuttx/arch/arm/src/libarch.a(stm32_serial.o)
 .debug_frame   0x00000000000003e8       0x28 NuttX/nuttx/arch/arm/src/libarch.a(up_modifyreg32.o)
 .debug_frame   0x0000000000000410       0x8c NuttX/nuttx/arch/arm/src/libarch.a(stm32_irq.o)
 .debug_frame   0x000000000000049c       0xd0 NuttX/nuttx/arch/arm/src/libarch.a(stm32_dma.o)
 .debug_frame   0x000000000000056c       0x4c NuttX/nuttx/arch/arm/src/libarch.a(up_assert.o)
 .debug_frame   0x00000000000005b8       0x30 NuttX/nuttx/arch/arm/src/libarch.a(up_doirq.o)
 .debug_frame   0x00000000000005e8       0x28 NuttX/nuttx/arch/arm/src/libarch.a(up_hardfault.o)
 .debug_frame   0x0000000000000610       0x28 NuttX/nuttx/arch/arm/src/libarch.a(up_svcall.o)
 .debug_frame   0x0000000000000638       0x58 NuttX/nuttx/arch/arm/src/libarch.a(up_checkstack.o)
 .debug_frame   0x0000000000000690       0x28 NuttX/nuttx/libc/libc.a(sem_init.o)
 .debug_frame   0x00000000000006b8       0x28 NuttX/nuttx/libc/libc.a(lib_abort.o)
 .debug_frame   0x00000000000006e0       0x20 NuttX/nuttx/libc/libc.a(lib_strcpy.o)
 .debug_frame   0x0000000000000700       0x54 NuttX/nuttx/libc/libc.a(lib_syslog.o)
 .debug_frame   0x0000000000000754       0x20 NuttX/nuttx/libc/libc.a(lib_setlogmask.o)
 .debug_frame   0x0000000000000774       0x20 NuttX/nuttx/libc/libc.a(lib_cfgetspeed.o)
 .debug_frame   0x0000000000000794       0x20 NuttX/nuttx/libc/libc.a(lib_cfsetspeed.o)
 .debug_frame   0x00000000000007b4      0x174 NuttX/nuttx/drivers/libdrivers.a(serial.o)
 .debug_frame   0x0000000000000928       0x64 NuttX/nuttx/drivers/libdrivers.a(serial_io.o)
 .debug_frame   0x000000000000098c       0x34 NuttX/nuttx/drivers/libdrivers.a(vsyslog.o)
 .debug_frame   0x00000000000009c0       0x3c NuttX/nuttx/drivers/libdrivers.a(syslog_stream.o)
 .debug_frame   0x00000000000009fc       0x3c NuttX/nuttx/drivers/libdrivers.a(syslog_emergstream.o)
 .debug_frame   0x0000000000000a38       0x38 NuttX/nuttx/drivers/libdrivers.a(syslog_putc.o)
 .debug_frame   0x0000000000000a70       0x20 NuttX/nuttx/drivers/libdrivers.a(syslog_force.o)
 .debug_frame   0x0000000000000a90       0x30 NuttX/nuttx/drivers/libdrivers.a(syslog_channel.o)
 .debug_frame   0x0000000000000ac0       0x30 NuttX/nuttx/fs/libfs.a(fs_registerdriver.o)
 .debug_frame   0x0000000000000af0       0x54 NuttX/nuttx/fs/libfs.a(fs_inode.o)
 .debug_frame   0x0000000000000b44       0x54 NuttX/nuttx/fs/libfs.a(fs_inodereserve.o)
 .debug_frame   0x0000000000000b98       0x40 NuttX/nuttx/fs/libfs.a(fs_inodesearch.o)
 .debug_frame   0x0000000000000bd8       0x20 NuttX/nuttx/mm/libmm.a(umm_zalloc.o)
 .debug_frame   0x0000000000000bf8       0x2c NuttX/nuttx/mm/libmm.a(mm_zalloc.o)
 .debug_frame   0x0000000000000c24       0x2c NuttX/nuttx/mm/libmm.a(mm_malloc.o)
 .debug_frame   0x0000000000000c50       0x78 NuttX/nuttx/mm/libmm.a(mm_sem.o)
 .debug_frame   0x0000000000000cc8       0x2c NuttX/nuttx/mm/libmm.a(mm_addfreechunk.o)
 .debug_frame   0x0000000000000cf4       0x20 NuttX/nuttx/mm/libmm.a(mm_size2ndx.o)
 .debug_frame   0x0000000000000d14       0x28 NuttX/nuttx/sched/libsched.a(errno_getptr.o)
 .debug_frame   0x0000000000000d3c       0x28 NuttX/nuttx/sched/libsched.a(os_start.o)
 .debug_frame   0x0000000000000d64       0x2c NuttX/nuttx/sched/libsched.a(os_bringup.o)
 .debug_frame   0x0000000000000d90       0x2c NuttX/nuttx/sched/libsched.a(irq_attach.o)
 .debug_frame   0x0000000000000dbc       0x20 NuttX/nuttx/sched/libsched.a(irq_dispatch.o)
 .debug_frame   0x0000000000000ddc       0x28 NuttX/nuttx/sched/libsched.a(irq_unexpectedisr.o)
 .debug_frame   0x0000000000000e04       0x3c NuttX/nuttx/sched/libsched.a(sched_garbage.o)
 .debug_frame   0x0000000000000e40       0x30 NuttX/nuttx/sched/libsched.a(sched_foreach.o)
 .debug_frame   0x0000000000000e70       0x20 NuttX/nuttx/sched/libsched.a(sched_idletask.o)
 .debug_frame   0x0000000000000e90       0x2c NuttX/nuttx/sched/libsched.a(sem_wait.o)
 .debug_frame   0x0000000000000ebc       0x28 NuttX/nuttx/sched/libsched.a(sem_trywait.o)
 .debug_frame   0x0000000000000ee4       0x28 NuttX/nuttx/sched/libsched.a(sem_post.o)
 .debug_frame   0x0000000000000f0c       0x2c NuttX/nuttx/sched/libsched.a(sem_reset.o)
 .debug_frame   0x0000000000000f38       0x70 NuttX/nuttx/sched/libsched.a(task_create.o)
 .debug_frame   0x0000000000000fa8       0x5c NuttX/nuttx/sched/libsched.a(task_setup.o)
 .debug_frame   0x0000000000001004       0x28 NuttX/nuttx/sched/libsched.a(task_activate.o)
 .debug_frame   0x000000000000102c       0x28 NuttX/nuttx/sched/libsched.a(task_start.o)
 .debug_frame   0x0000000000001054       0x20 NuttX/nuttx/sched/libsched.a(task_getpid.o)
 .debug_frame   0x0000000000001074       0x28 NuttX/nuttx/sched/libsched.a(exit.o)
 .debug_frame   0x000000000000109c       0x38 NuttX/nuttx/sched/libsched.a(group_create.o)
 .debug_frame   0x00000000000010d4       0x28 NuttX/nuttx/sched/libsched.a(group_setupidlefiles.o)
 .debug_frame   0x00000000000010fc       0x28 NuttX/nuttx/sched/libsched.a(group_setuptaskfiles.o)
 .debug_frame   0x0000000000001124       0x20 NuttX/nuttx/sched/libsched.a(irq_initialize.o)
 .debug_frame   0x0000000000001144       0x28 NuttX/nuttx/sched/libsched.a(sched_releasetcb.o)
 .debug_frame   0x000000000000116c       0x28 NuttX/nuttx/sched/libsched.a(sched_lock.o)
 .debug_frame   0x0000000000001194       0x2c NuttX/nuttx/sched/libsched.a(sched_unlock.o)
 .debug_frame   0x00000000000011c0       0x28 NuttX/nuttx/sched/libsched.a(task_exithook.o)
 .debug_frame   0x00000000000011e8       0x2c NuttX/nuttx/sched/libsched.a(task_recover.o)
 .debug_frame   0x0000000000001214       0x2c NuttX/nuttx/sched/libsched.a(wd_recover.o)
 .debug_frame   0x0000000000001240       0x2c NuttX/nuttx/sched/libsched.a(group_leave.o)
 .debug_frame   0x000000000000126c       0x34 NuttX/nuttx/sched/libsched.a(sched_free.o)
 .debug_frame   0x00000000000012a0       0x20 NuttX/nuttx/sched/libsched.a(sem_recover.o)
 .debug_frame   0x00000000000012c0       0x2c NuttX/nuttx/sched/libsched.a(wd_cancel.o)
 .debug_frame   0x00000000000012ec       0x2c NuttX/nuttx/sched/libsched.a(wd_delete.o)
 .debug_frame   0x0000000000001318       0x2c NuttX/nuttx/sched/libsched.a(wd_initialize.o)
 .debug_frame   0x0000000000001344       0x20 NuttX/nuttx/arch/arm/src/libarch.a(stm32_allocateheap.o)
 .debug_frame   0x0000000000001364       0x20 NuttX/nuttx/arch/arm/src/libarch.a(stm32_idle.o)
 .debug_frame   0x0000000000001384       0x38 NuttX/nuttx/arch/arm/src/libarch.a(up_blocktask.o)
 .debug_frame   0x00000000000013bc       0x20 NuttX/nuttx/arch/arm/src/libarch.a(up_copyfullstate.o)
 .debug_frame   0x00000000000013dc       0x3c NuttX/nuttx/arch/arm/src/libarch.a(up_createstack.o)
 .debug_frame   0x0000000000001418       0x2c NuttX/nuttx/arch/arm/src/libarch.a(up_mdelay.o)
 .debug_frame   0x0000000000001444       0x28 NuttX/nuttx/arch/arm/src/libarch.a(up_exit.o)
 .debug_frame   0x000000000000146c       0x2c NuttX/nuttx/arch/arm/src/libarch.a(up_initialize.o)
 .debug_frame   0x0000000000001498       0x28 NuttX/nuttx/arch/arm/src/libarch.a(up_initialstate.o)
 .debug_frame   0x00000000000014c0       0x20 NuttX/nuttx/arch/arm/src/libarch.a(up_interruptcontext.o)
 .debug_frame   0x00000000000014e0       0x34 NuttX/nuttx/arch/arm/src/libarch.a(up_releasepending.o)
 .debug_frame   0x0000000000001514       0x28 NuttX/nuttx/arch/arm/src/libarch.a(up_releasestack.o)
 .debug_frame   0x000000000000153c       0x20 NuttX/nuttx/arch/arm/src/libarch.a(up_stackframe.o)
 .debug_frame   0x000000000000155c       0x34 NuttX/nuttx/arch/arm/src/libarch.a(up_unblocktask.o)
 .debug_frame   0x0000000000001590       0x44 NuttX/nuttx/arch/arm/src/libarch.a(stm32_timerisr.o)
 .debug_frame   0x00000000000015d4       0x20 NuttX/nuttx/libc/libc.a(sq_addlast.o)
 .debug_frame   0x00000000000015f4       0x20 NuttX/nuttx/libc/libc.a(sq_remfirst.o)
 .debug_frame   0x0000000000001614       0x20 NuttX/nuttx/libc/libc.a(sq_remafter.o)
 .debug_frame   0x0000000000001634       0x20 NuttX/nuttx/libc/libc.a(dq_addfirst.o)
 .debug_frame   0x0000000000001654       0x20 NuttX/nuttx/libc/libc.a(dq_rem.o)
 .debug_frame   0x0000000000001674       0x28 NuttX/nuttx/libc/libc.a(sem_setprotocol.o)
 .debug_frame   0x000000000000169c      0x144 NuttX/nuttx/libc/libc.a(lib_libvsprintf.o)
 .debug_frame   0x00000000000017e0       0x30 NuttX/nuttx/libc/libc.a(lib_nulloutstream.o)
 .debug_frame   0x0000000000001810       0x20 NuttX/nuttx/libc/libc.a(lib_libnoflush.o)
 .debug_frame   0x0000000000001830       0x20 NuttX/nuttx/libc/libc.a(lib_memset.o)
 .debug_frame   0x0000000000001850       0x20 NuttX/nuttx/libc/libc.a(lib_strchr.o)
 .debug_frame   0x0000000000001870       0x20 NuttX/nuttx/libc/libc.a(lib_strlen.o)
 .debug_frame   0x0000000000001890       0x28 NuttX/nuttx/libc/libc.a(lib_strnlen.o)
 .debug_frame   0x00000000000018b8       0x28 NuttX/nuttx/libc/libc.a(lib_strncpy.o)
 .debug_frame   0x00000000000018e0       0x20 NuttX/nuttx/drivers/libdrivers.a(syslog_initialize.o)
 .debug_frame   0x0000000000001900       0x30 NuttX/nuttx/drivers/libdrivers.a(syslog_consolechannel.o)
 .debug_frame   0x0000000000001930       0xbc NuttX/nuttx/drivers/libdrivers.a(syslog_device.o)
 .debug_frame   0x00000000000019ec       0x20 NuttX/nuttx/fs/libfs.a(fs_initialize.o)
 .debug_frame   0x0000000000001a0c      0x10c NuttX/nuttx/fs/libfs.a(fs_files.o)
 .debug_frame   0x0000000000001b18       0x30 NuttX/nuttx/fs/libfs.a(fs_inodeaddref.o)
 .debug_frame   0x0000000000001b48       0x38 NuttX/nuttx/fs/libfs.a(fs_inoderelease.o)
 .debug_frame   0x0000000000001b80       0x4c NuttX/nuttx/fs/libfs.a(fs_filedetach.o)
 .debug_frame   0x0000000000001bcc       0x28 NuttX/nuttx/fs/libfs.a(fs_close.o)
 .debug_frame   0x0000000000001bf4       0x34 NuttX/nuttx/fs/libfs.a(fs_dupfd2.o)
 .debug_frame   0x0000000000001c28       0x28 NuttX/nuttx/fs/libfs.a(fs_getfilep.o)
 .debug_frame   0x0000000000001c50       0x5c NuttX/nuttx/fs/libfs.a(fs_open.o)
 .debug_frame   0x0000000000001cac       0x50 NuttX/nuttx/fs/libfs.a(fs_write.o)
 .debug_frame   0x0000000000001cfc       0x2c NuttX/nuttx/fs/libfs.a(fs_inodefind.o)
 .debug_frame   0x0000000000001d28       0x30 NuttX/nuttx/fs/libfs.a(fs_inodefree.o)
 .debug_frame   0x0000000000001d58       0x20 NuttX/nuttx/mm/libmm.a(umm_initialize.o)
 .debug_frame   0x0000000000001d78       0x30 NuttX/nuttx/mm/libmm.a(umm_sem.o)
 .debug_frame   0x0000000000001da8       0x20 NuttX/nuttx/mm/libmm.a(umm_free.o)
 .debug_frame   0x0000000000001dc8       0x20 NuttX/nuttx/mm/libmm.a(umm_malloc.o)
 .debug_frame   0x0000000000001de8       0x58 NuttX/nuttx/mm/libmm.a(mm_initialize.o)
 .debug_frame   0x0000000000001e40       0x38 NuttX/nuttx/mm/libmm.a(mm_free.o)
 .debug_frame   0x0000000000001e78       0x20 NuttX/nuttx/sched/libsched.a(sched_getfiles.o)
 .debug_frame   0x0000000000001e98       0x28 NuttX/nuttx/sched/libsched.a(sched_addreadytorun.o)
 .debug_frame   0x0000000000001ec0       0x2c NuttX/nuttx/sched/libsched.a(sched_removereadytorun.o)
 .debug_frame   0x0000000000001eec       0x28 NuttX/nuttx/sched/libsched.a(sched_addprioritized.o)
 .debug_frame   0x0000000000001f14       0x30 NuttX/nuttx/sched/libsched.a(sched_mergepending.o)
 .debug_frame   0x0000000000001f44       0x2c NuttX/nuttx/sched/libsched.a(sched_addblocked.o)
 .debug_frame   0x0000000000001f70       0x28 NuttX/nuttx/sched/libsched.a(sched_removeblocked.o)
 .debug_frame   0x0000000000001f98       0x2c NuttX/nuttx/sched/libsched.a(sched_processtimer.o)
 .debug_frame   0x0000000000001fc4       0x28 NuttX/nuttx/sched/libsched.a(sem_destroy.o)
 .debug_frame   0x0000000000001fec       0x2c NuttX/nuttx/sched/libsched.a(task_exit.o)
 .debug_frame   0x0000000000002018       0x38 NuttX/nuttx/sched/libsched.a(task_terminate.o)
 .debug_frame   0x0000000000002050       0x64 NuttX/nuttx/sched/libsched.a(wd_start.o)
 .debug_frame   0x00000000000020b4       0x20 NuttX/nuttx/sched/libsched.a(sched_gettcb.o)
 .debug_frame   0x00000000000020d4       0x20 NuttX/nuttx/libc/libc.a(sq_addfirst.o)
 .debug_frame   0x00000000000020f4       0x20 NuttX/nuttx/libc/libc.a(sq_addafter.o)
 .debug_frame   0x0000000000002114       0x20 NuttX/nuttx/libc/libc.a(dq_addlast.o)
 .debug_frame   0x0000000000002134       0x2c NuttX/nuttx/libc/libc.a(lib_strdup.o)
 .debug_frame   0x0000000000002160       0x8c src/modules/px4iofirmware/libpx4iofirmware.a(px4io.c.obj)
 .debug_frame   0x00000000000021ec       0x90 src/modules/px4iofirmware/libpx4iofirmware.a(registers.c.obj)
 .debug_frame   0x000000000000227c       0x68 src/modules/px4iofirmware/libpx4iofirmware.a(safety.c.obj)
 .debug_frame   0x00000000000022e4       0x98 src/modules/px4iofirmware/libpx4iofirmware.a(serial.c.obj)
 .debug_frame   0x000000000000237c       0x50 src/modules/px4iofirmware/libpx4iofirmware.a(pwm_limit.c.obj)
 .debug_frame   0x00000000000023cc       0x48 src/modules/px4iofirmware/libpx4iofirmware.a(adc.c.obj)
 .debug_frame   0x0000000000002414       0x5c src/modules/px4iofirmware/libpx4iofirmware.a(controls.c.obj)
 .debug_frame   0x0000000000002470      0x110 src/modules/px4iofirmware/libpx4iofirmware.a(mixer.cpp.obj)
 .debug_frame   0x0000000000002580       0x30 NuttX/apps/libapps.a(gnu_cxxinitialize.o)
 .debug_frame   0x00000000000025b0       0x2c NuttX/nuttx/arch/arm/src/libarch.a(up_udelay.o)
 .debug_frame   0x00000000000025dc       0x20 NuttX/nuttx/arch/arm/src/libarch.a(up_systemreset.o)
 .debug_frame   0x00000000000025fc       0x30 src/drivers/boards/px4io-v2/libdrivers_board.a(init.c.obj)
 .debug_frame   0x000000000000262c      0x210 src/drivers/stm32/libdrivers_arch.a(drv_hrt.c.obj)
 .debug_frame   0x000000000000283c       0xe8 src/drivers/stm32/libdrivers_arch.a(drv_pwm_servo.c.obj)
 .debug_frame   0x0000000000002924      0x1f0 src/drivers/stm32/libdrivers_arch.a(drv_io_timer.c.obj)
 .debug_frame   0x0000000000002b14      0x1cc src/lib/mixer/libmixer.a(mixer_group.cpp.obj)
 .debug_frame   0x0000000000002ce0      0x120 src/lib/mixer/libmixer.a(mixer_helicopter.cpp.obj)
 .debug_frame   0x0000000000002e00      0x144 src/lib/mixer/libmixer.a(mixer_multirotor.cpp.obj)
 .debug_frame   0x0000000000002f44      0x1c4 src/lib/mixer/libmixer.a(mixer_simple.cpp.obj)
 .debug_frame   0x0000000000003108      0x1a8 src/lib/mixer/libmixer.a(mixer.cpp.obj)
 .debug_frame   0x00000000000032b0       0x50 src/lib/rc/librc.a(st24.cpp.obj)
 .debug_frame   0x0000000000003300       0x60 src/lib/rc/librc.a(sumd.cpp.obj)
 .debug_frame   0x0000000000003360      0x104 src/lib/rc/librc.a(sbus.cpp.obj)
 .debug_frame   0x0000000000003464      0x118 src/lib/rc/librc.a(dsm.cpp.obj)
 .debug_frame   0x000000000000357c       0x28 NuttX/nuttx/libxx/libcxx.a(libxx_cxapurevirtual.o)
 .debug_frame   0x00000000000035a4       0x20 NuttX/nuttx/libxx/libcxx.a(libxx_eabi_atexit.o)
 .debug_frame   0x00000000000035c4       0x20 NuttX/nuttx/libxx/libcxx.a(libxx_cxa_atexit.o)
 .debug_frame   0x00000000000035e4       0x20 NuttX/nuttx/libxx/libcxx.a(libxx_delete.o)
 .debug_frame   0x0000000000003604       0x20 NuttX/nuttx/libxx/libcxx.a(libxx_deletea.o)
 .debug_frame   0x0000000000003624       0x20 NuttX/nuttx/libxx/libcxx.a(libxx_new.o)
 .debug_frame   0x0000000000003644       0x20 NuttX/nuttx/libxx/libcxx.a(libxx_newa.o)
 .debug_frame   0x0000000000003664       0x3c NuttX/nuttx/libc/libc.a(lib_crc32.o)
 .debug_frame   0x00000000000036a0       0x20 NuttX/nuttx/libc/libc.a(sq_rem.o)
 .debug_frame   0x00000000000036c0       0x40 NuttX/nuttx/libc/libc.a(lib_printf.o)
 .debug_frame   0x0000000000003700       0x34 NuttX/nuttx/libc/libc.a(lib_vsnprintf.o)
 .debug_frame   0x0000000000003734       0x30 NuttX/nuttx/libc/libc.a(lib_memoutstream.o)
 .debug_frame   0x0000000000003764       0x80 NuttX/nuttx/libc/libc.a(lib_sscanf.o)
 .debug_frame   0x00000000000037e4       0x34 NuttX/nuttx/libc/libc.a(lib_strtol.o)
 .debug_frame   0x0000000000003818       0x34 NuttX/nuttx/libc/libc.a(lib_strtoul.o)
 .debug_frame   0x000000000000384c       0x2c NuttX/nuttx/libc/libc.a(lib_checkbase.o)
 .debug_frame   0x0000000000003878       0x20 NuttX/nuttx/libc/libc.a(lib_isbasedigit.o)
 .debug_frame   0x0000000000003898       0x28 NuttX/nuttx/libc/libc.a(lib_memchr.o)
 .debug_frame   0x00000000000038c0       0x28 NuttX/nuttx/libc/libc.a(lib_memmove.o)
 .debug_frame   0x00000000000038e8       0x20 NuttX/nuttx/libc/libc.a(lib_skipspace.o)
 .debug_frame   0x0000000000003908       0x20 NuttX/nuttx/libc/libc.a(lib_strcmp.o)
 .debug_frame   0x0000000000003928       0x30 NuttX/nuttx/libc/libc.a(lib_strcspn.o)
 .debug_frame   0x0000000000003958       0x20 NuttX/nuttx/libc/libc.a(lib_tcgetattr.o)
 .debug_frame   0x0000000000003978       0x20 NuttX/nuttx/libc/libc.a(lib_tcsetattr.o)
 .debug_frame   0x0000000000003998       0x4c NuttX/nuttx/fs/libfs.a(fs_ioctl.o)
 .debug_frame   0x00000000000039e4       0x4c NuttX/nuttx/fs/libfs.a(fs_read.o)
 .debug_frame   0x0000000000003a30       0x34 NuttX/nuttx/mm/libmm.a(umm_mallinfo.o)
 .debug_frame   0x0000000000003a64       0x34 NuttX/nuttx/mm/libmm.a(mm_mallinfo.o)
 .debug_frame   0x0000000000003a98       0x34 /home/zhouhua/gcc-arm-none-eabi-7-2017-q4-major/bin/../lib/gcc/arm-none-eabi/7.2.1/../../../../arm-none-eabi/lib/thumb/v7-m/libm.a(lib_a-sf_cos.o)
 .debug_frame   0x0000000000003acc       0x30 /home/zhouhua/gcc-arm-none-eabi-7-2017-q4-major/bin/../lib/gcc/arm-none-eabi/7.2.1/../../../../arm-none-eabi/lib/thumb/v7-m/libm.a(lib_a-sf_floor.o)
 .debug_frame   0x0000000000003afc       0x2c /home/zhouhua/gcc-arm-none-eabi-7-2017-q4-major/bin/../lib/gcc/arm-none-eabi/7.2.1/../../../../arm-none-eabi/lib/thumb/v7-m/libm.a(lib_a-sf_fmax.o)
 .debug_frame   0x0000000000003b28       0x2c /home/zhouhua/gcc-arm-none-eabi-7-2017-q4-major/bin/../lib/gcc/arm-none-eabi/7.2.1/../../../../arm-none-eabi/lib/thumb/v7-m/libm.a(lib_a-sf_fmin.o)
 .debug_frame   0x0000000000003b54       0x20 /home/zhouhua/gcc-arm-none-eabi-7-2017-q4-major/bin/../lib/gcc/arm-none-eabi/7.2.1/../../../../arm-none-eabi/lib/thumb/v7-m/libm.a(lib_a-sf_fpclassify.o)
 .debug_frame   0x0000000000003b74       0x34 /home/zhouhua/gcc-arm-none-eabi-7-2017-q4-major/bin/../lib/gcc/arm-none-eabi/7.2.1/../../../../arm-none-eabi/lib/thumb/v7-m/libm.a(lib_a-sf_sin.o)
 .debug_frame   0x0000000000003ba8       0x3c /home/zhouhua/gcc-arm-none-eabi-7-2017-q4-major/bin/../lib/gcc/arm-none-eabi/7.2.1/../../../../arm-none-eabi/lib/thumb/v7-m/libm.a(lib_a-wf_sqrt.o)
 .debug_frame   0x0000000000003be4       0x48 /home/zhouhua/gcc-arm-none-eabi-7-2017-q4-major/bin/../lib/gcc/arm-none-eabi/7.2.1/../../../../arm-none-eabi/lib/thumb/v7-m/libm.a(lib_a-ef_rem_pio2.o)
 .debug_frame   0x0000000000003c2c       0x30 /home/zhouhua/gcc-arm-none-eabi-7-2017-q4-major/bin/../lib/gcc/arm-none-eabi/7.2.1/../../../../arm-none-eabi/lib/thumb/v7-m/libm.a(lib_a-ef_sqrt.o)
 .debug_frame   0x0000000000003c5c       0x34 /home/zhouhua/gcc-arm-none-eabi-7-2017-q4-major/bin/../lib/gcc/arm-none-eabi/7.2.1/../../../../arm-none-eabi/lib/thumb/v7-m/libm.a(lib_a-kf_cos.o)
 .debug_frame   0x0000000000003c90       0x50 /home/zhouhua/gcc-arm-none-eabi-7-2017-q4-major/bin/../lib/gcc/arm-none-eabi/7.2.1/../../../../arm-none-eabi/lib/thumb/v7-m/libm.a(lib_a-kf_rem_pio2.o)
 .debug_frame   0x0000000000003ce0       0x34 /home/zhouhua/gcc-arm-none-eabi-7-2017-q4-major/bin/../lib/gcc/arm-none-eabi/7.2.1/../../../../arm-none-eabi/lib/thumb/v7-m/libm.a(lib_a-kf_sin.o)
 .debug_frame   0x0000000000003d14       0x20 /home/zhouhua/gcc-arm-none-eabi-7-2017-q4-major/bin/../lib/gcc/arm-none-eabi/7.2.1/../../../../arm-none-eabi/lib/thumb/v7-m/libm.a(lib_a-s_matherr.o)
 .debug_frame   0x0000000000003d34       0x20 /home/zhouhua/gcc-arm-none-eabi-7-2017-q4-major/bin/../lib/gcc/arm-none-eabi/7.2.1/../../../../arm-none-eabi/lib/thumb/v7-m/libm.a(lib_a-sf_fabs.o)
 .debug_frame   0x0000000000003d54       0x28 /home/zhouhua/gcc-arm-none-eabi-7-2017-q4-major/bin/../lib/gcc/arm-none-eabi/7.2.1/../../../../arm-none-eabi/lib/thumb/v7-m/libm.a(lib_a-sf_scalbn.o)
 .debug_frame   0x0000000000003d7c       0x20 /home/zhouhua/gcc-arm-none-eabi-7-2017-q4-major/bin/../lib/gcc/arm-none-eabi/7.2.1/../../../../arm-none-eabi/lib/thumb/v7-m/libm.a(lib_a-sf_copysign.o)
 .debug_frame   0x0000000000003d9c       0xac /home/zhouhua/gcc-arm-none-eabi-7-2017-q4-major/bin/../lib/gcc/arm-none-eabi/7.2.1/thumb/v7-m/libgcc.a(_arm_addsubdf3.o)
 .debug_frame   0x0000000000003e48       0x50 /home/zhouhua/gcc-arm-none-eabi-7-2017-q4-major/bin/../lib/gcc/arm-none-eabi/7.2.1/thumb/v7-m/libgcc.a(_arm_muldivdf3.o)
 .debug_frame   0x0000000000003e98       0x24 /home/zhouhua/gcc-arm-none-eabi-7-2017-q4-major/bin/../lib/gcc/arm-none-eabi/7.2.1/thumb/v7-m/libgcc.a(_arm_truncdfsf2.o)
 .debug_frame   0x0000000000003ebc       0x4c /home/zhouhua/gcc-arm-none-eabi-7-2017-q4-major/bin/../lib/gcc/arm-none-eabi/7.2.1/thumb/v7-m/libgcc.a(_arm_addsubsf3.o)
 .debug_frame   0x0000000000003f08       0x38 /home/zhouhua/gcc-arm-none-eabi-7-2017-q4-major/bin/../lib/gcc/arm-none-eabi/7.2.1/thumb/v7-m/libgcc.a(_arm_muldivsf3.o)
 .debug_frame   0x0000000000003f40       0xc8 /home/zhouhua/gcc-arm-none-eabi-7-2017-q4-major/bin/../lib/gcc/arm-none-eabi/7.2.1/thumb/v7-m/libgcc.a(_arm_cmpsf2.o)
 .debug_frame   0x0000000000004008       0x24 /home/zhouhua/gcc-arm-none-eabi-7-2017-q4-major/bin/../lib/gcc/arm-none-eabi/7.2.1/thumb/v7-m/libgcc.a(_arm_unordsf2.o)
 .debug_frame   0x000000000000402c       0x24 /home/zhouhua/gcc-arm-none-eabi-7-2017-q4-major/bin/../lib/gcc/arm-none-eabi/7.2.1/thumb/v7-m/libgcc.a(_arm_fixsfsi.o)
 .debug_frame   0x0000000000004050       0x24 /home/zhouhua/gcc-arm-none-eabi-7-2017-q4-major/bin/../lib/gcc/arm-none-eabi/7.2.1/thumb/v7-m/libgcc.a(_arm_fixunssfsi.o)
 .debug_frame   0x0000000000004074       0x2c /home/zhouhua/gcc-arm-none-eabi-7-2017-q4-major/bin/../lib/gcc/arm-none-eabi/7.2.1/thumb/v7-m/libgcc.a(_aeabi_uldivmod.o)
 .debug_frame   0x00000000000040a0       0x34 /home/zhouhua/gcc-arm-none-eabi-7-2017-q4-major/bin/../lib/gcc/arm-none-eabi/7.2.1/thumb/v7-m/libgcc.a(_udivmoddi4.o)
 .debug_frame   0x00000000000040d4      0x250 src/lib/perf/libperf.a(perf_counter.c.obj)
